{
  "main_library": {
    "exported_symbols": [
      {
        "data": {
          "global": [
            "__ZTVN11grpc_binder27TransportStreamReceiverImplE",
            "__ZN4grpc6g_glipE",
            "__ZTVN4grpc6ServerE",
            "__ZN11grpc_binder28kFlagMessageDataIsParcelableE",
            "__ZN11grpc_binder14WireWriterImpl10kBlockSizeE",
            "__ZTIN4grpc11ChannelDataE",
            "__ZTSN4grpc17ServerContextBase12CompletionOpE",
            "__ZTVN4grpc12experimental29StaticDataCertificateProviderE",
            "__ZTSN4grpc23SecureServerCredentialsE",
            "__ZTSN4grpc12experimental6binder23UntrustedSecurityPolicyE",
            "__ZTSN4grpc17ServerCredentialsE",
            "__ZTVN4grpc23SecureServerCredentialsE",
            "__ZTIN4grpc15CallCredentialsE",
            "__ZTIN9grpc_core26BinderClientChannelFactoryE",
            "__ZTIN4grpc25DefaultHealthCheckService22HealthCheckServiceImplE",
            "__ZTVN4grpc7ChannelE",
            "__ZTIN4grpc15ServerInterface19GenericAsyncRequestE",
            "__ZTIN4grpc21SecureCallCredentialsE",
            "__ZN11grpc_binder11kFlagPrefixE",
            "__ZTSN4grpc18ChannelCredentialsE",
            "__ZTVN4grpc13ServerBuilderE",
            "__ZTVN4grpc8CallDataE",
            "__ZTIN11grpc_binder27TransportStreamReceiverImplE",
            "__ZTVN4grpc17SecureAuthContextE",
            "__ZTSN4grpc25DefaultHealthCheckServiceE",
            "__ZN11grpc_binder25kFlagMessageDataIsPartialE",
            "__ZTSN4grpc15ServerInterface16BaseAsyncRequestE",
            "__ZTVN4grpc11CoreCodegenE",
            "__ZTIN4grpc12experimental6binder23UntrustedSecurityPolicyE",
            "__ZN4grpc24g_core_codegen_interfaceE",
            "__ZTIN4grpc25DefaultHealthCheckService22HealthCheckServiceImpl12WatchReactorE",
            "__ZTVN4grpc24SecureChannelCredentialsE",
            "__ZTIN4grpc15ServerInterface16BaseAsyncRequestE",
            "__ZTIN11grpc_binder14WireReaderImplE",
            "__ZTIN4grpc18ChannelCredentialsE",
            "__ZTSN4grpc17ServerContextBaseE",
            "__ZTSN4grpc5AlarmE",
            "__ZTIN4grpc6Server25UnimplementedAsyncRequestE",
            "__ZTVN4grpc12experimental6binder26InternalOnlySecurityPolicyE",
            "__ZN11grpc_binder16kFlagMessageDataE",
            "__ZTIN4grpc12experimental29StaticDataCertificateProviderE",
            "__ZN11grpc_binder12kFirstCallIdE",
            "__ZTVN11grpc_binder14WireWriterImplE",
            "__ZTSN9grpc_core26BinderClientChannelFactoryE",
            "__ZTVN4grpc13ResourceQuotaE",
            "__ZTSN11grpc_binder14WireWriterImplE",
            "__ZTIN4grpc6ServerE",
            "__ZTSN4grpc15CallCredentialsE",
            "__ZTSN11grpc_binder27TransportStreamReceiverImplE",
            "__ZTSN4grpc37HealthCheckServiceServerBuilderOptionE",
            "__ZTVN4grpc12experimental27ExternalCertificateVerifierE",
            "_LAST_CALL_TRANSACTION",
            "_grpcppVersionString",
            "__ZTSN4grpc12experimental27ExternalCertificateVerifierE",
            "__ZTVN4grpc12experimental30FileWatcherCertificateProviderE",
            "__ZTSN4grpc7ChannelE",
            "__ZN11grpc_binder11kFlagSuffixE",
            "_FIRST_CALL_TRANSACTION",
            "_grpcppVersionNumber",
            "__ZN11grpc_binder19kFlagOutOfBandCloseE",
            "__ZTVN4grpc12experimental6binder23UntrustedSecurityPolicyE",
            "__ZTIN4grpc13ServerBuilderE",
            "__ZTSN4grpc12experimental29StaticDataCertificateProviderE",
            "__ZTVN4grpc17ServerCredentialsE",
            "__ZTVN4grpc18ChannelCredentialsE",
            "__ZTSN4grpc12experimental6binder26InternalOnlySecurityPolicyE",
            "__ZTIN4grpc17DynamicThreadPoolE",
            "__ZTSN4grpc6Server25UnimplementedAsyncRequestE",
            "__ZTIN4grpc17ServerContextBase12CompletionOpE",
            "__ZTVN4grpc6Server25UnimplementedAsyncRequestE",
            "__ZTVN4grpc25DefaultHealthCheckServiceE",
            "__ZN11grpc_binder24kFlagExpectSingleMessageE",
            "__ZTSN4grpc8CallDataE",
            "__ZTIN4grpc13ThreadManagerE",
            "__ZTIN4grpc8CallDataE",
            "__ZTIN4grpc13ResourceQuotaE",
            "__ZTSN4grpc24SecureChannelCredentialsE",
            "__ZTSN4grpc15ServerInterface19GenericAsyncRequestE",
            "__ZTVN4grpc21SecureCallCredentialsE",
            "__ZTIN4grpc24SecureChannelCredentialsE",
            "__ZTVN9grpc_core26BinderClientChannelFactoryE",
            "__ZTIN11grpc_binder14WireWriterImplE",
            "__ZN4grpc6Status9CANCELLEDE",
            "__ZTIN4grpc37HealthCheckServiceServerBuilderOptionE",
            "__ZTSN4grpc13ThreadManagerE",
            "__ZTIN4grpc12experimental30FileWatcherCertificateProviderE",
            "__ZTIN4grpc7ChannelE",
            "__ZTIN4grpc12experimental6binder26InternalOnlySecurityPolicyE",
            "__ZTSN4grpc25DefaultHealthCheckService22HealthCheckServiceImplE",
            "__ZTSN4grpc11CoreCodegenE",
            "__ZTSN4grpc25DefaultHealthCheckService22HealthCheckServiceImpl12WatchReactorE",
            "__ZN4grpc10string_ref4nposE",
            "__ZTSN4grpc17DynamicThreadPoolE",
            "__ZTVN4grpc13ThreadManagerE",
            "__ZTSN4grpc21SecureCallCredentialsE",
            "__ZTVN4grpc25DefaultHealthCheckService22HealthCheckServiceImpl12WatchReactorE",
            "__ZTVN4grpc5AlarmE",
            "__ZTSN11grpc_binder14WireReaderImplE",
            "__ZN11grpc_binder14WireWriterImpl22kFlowControlWindowSizeE",
            "__ZN11grpc_binder23TransportStreamReceiver39kGrpcBinderTransportCancelledGracefullyE",
            "__ZTSN4grpc6ServerE",
            "__ZTSN4grpc13ServerBuilderE",
            "__ZTIN4grpc23SecureServerCredentialsE",
            "__ZTIN4grpc5AlarmE",
            "__ZTVN4grpc17ServerContextBase12CompletionOpE",
            "__ZTVN4grpc17DynamicThreadPoolE",
            "__ZTVN4grpc37HealthCheckServiceServerBuilderOptionE",
            "__ZTIN4grpc17SecureAuthContextE",
            "__ZTIN4grpc8internal13ClientReactorE",
            "__ZTSN4grpc17SecureAuthContextE",
            "__ZTVN4grpc8internal13ClientReactorE",
            "__ZTIN4grpc17ServerCredentialsE",
            "__ZTSN4grpc11ChannelDataE",
            "__ZN4grpc8internal35g_global_client_interceptor_factoryE",
            "__ZN4grpc6Status2OKE",
            "__ZTIN4grpc25DefaultHealthCheckServiceE",
            "__ZN11grpc_binder22kFlagStatusDescriptionE",
            "__ZTVN4grpc15CallCredentialsE",
            "__ZTSN4grpc12experimental30FileWatcherCertificateProviderE",
            "__ZTVN11grpc_binder14WireReaderImplE",
            "__ZTVN4grpc11ChannelDataE",
            "__ZTIN4grpc12experimental27ExternalCertificateVerifierE",
            "__ZTSN4grpc8internal13ClientReactorE",
            "__ZTVN4grpc25DefaultHealthCheckService22HealthCheckServiceImplE",
            "__ZTVN4grpc15ServerInterface19GenericAsyncRequestE",
            "__ZTIN4grpc17ServerContextBaseE",
            "__ZTVN4grpc17ServerContextBaseE",
            "__ZTVN4grpc15ServerInterface16BaseAsyncRequestE",
            "__ZTIN4grpc11CoreCodegenE",
            "__ZTSN4grpc13ResourceQuotaE"
          ],
          "objc_class": [
            "PodsDummy_gRPC_C__"
          ],
          "weak": [
            "__ZN9grpc_core19NoDestructSingletonINS_15activity_detail10UnwakeableEE6value_E",
            "__ZGVN9grpc_core19NoDestructSingletonINS_15activity_detail10UnwakeableEE6value_E"
          ]
        },
        "text": {
          "global": [
            "__ZN4grpc12experimental21TlsCredentialsOptions33set_tls_session_key_log_file_pathERKNSt3__112basic_stringIcNS2_11char_traitsIcEENS2_9allocatorIcEEEE",
            "__Z24grpc_add_endpoint_binderRKNSt3__112basic_stringIcNS_11char_traitsIcEENS_9allocatorIcEEEEPv",
            "__ZN4grpc12experimental19CertificateVerifierD2Ev",
            "__ZN4grpc16ChannelArgumentsC1ERKS0_",
            "__ZN4grpc32AuthMetadataProcessorAyncWrapper7ProcessEPvP17grpc_auth_contextPK13grpc_metadatamPFvS1_S6_mS6_m16grpc_status_codePKcES1_",
            "__ZN4grpc15CallCredentialsC2Ev",
            "__ZN4grpc12experimental14XdsCredentialsERKNSt3__110shared_ptrINS_18ChannelCredentialsEEE",
            "__ZN11grpc_binder27TransportStreamReceiverImpl26NotifyRecvTrailingMetadataEiN4absl12lts_202206238StatusOrINSt3__16vectorINS4_4pairINS4_12basic_stringIcNS4_11char_traitsIcEENS4_9allocatorIcEEEESC_EENSA_ISD_EEEEEEi",
            "__ZN4grpc12experimental6binder23UntrustedSecurityPolicyD0Ev",
            "__ZN4grpc13ResourceQuotaD2Ev",
            "__ZN4grpc11CoreCodegen16grpc_slice_unrefE10grpc_slice",
            "__ZN4grpc11CoreCodegen21grpc_slice_split_tailEP10grpc_slicem",
            "__ZN4grpc17ServerContextBase21SetLoadReportingCostsERKNSt3__16vectorINS1_12basic_stringIcNS1_11char_traitsIcEENS1_9allocatorIcEEEENS6_IS8_EEEE",
            "__ZN4grpc15ServerInterface16BaseAsyncRequestD1Ev",
            "__ZN4grpc37HealthCheckServiceServerBuilderOption15UpdateArgumentsEPNS_16ChannelArgumentsE",
            "__ZN4grpc12experimental14StsCredentialsERKNS0_21StsCredentialsOptionsE",
            "__ZN4grpc7Channel23NotifyOnStateChangeImplE23grpc_connectivity_state12gpr_timespecPNS_15CompletionQueueEPv",
            "__ZN4grpc12experimental29StaticDataCertificateProviderC1ERKNSt3__112basic_stringIcNS2_11char_traitsIcEENS2_9allocatorIcEEEERKNS2_6vectorINS0_19IdentityKeyCertPairENS6_ISC_EEEE",
            "__ZN4grpc13ServerBuilderC2Ev",
            "__ZN4grpc15ServerInterface16BaseAsyncRequestC1EPS0_PNS_13ServerContextEPNS_8internal29ServerAsyncStreamingInterfaceEPNS_15CompletionQueueEPNS_21ServerCompletionQueueEPvb",
            "__ZN4grpc13ServerBuilder17experimental_type29AddExternalConnectionAcceptorENS1_22ExternalConnectionTypeENSt3__110shared_ptrINS_17ServerCredentialsEEE",
            "__ZN4grpc32MetadataCredentialsPluginWrapper7DestroyEPv",
            "__ZN4grpc21SecureCallCredentialsC1EP21grpc_call_credentials",
            "__ZN4grpc17DynamicThreadPoolD1Ev",
            "__ZN4grpc7Channel14RegisterMethodEPKc",
            "__ZN11grpc_binder14WireReaderImpl18RecvSetupTransportEv",
            "__ZN4grpc13ClientContextD1Ev",
            "__ZN4grpc25DefaultHealthCheckService22HealthCheckServiceImplC1EPS0_",
            "__ZN4grpc12experimental6binder26InternalOnlySecurityPolicyD2Ev",
            "__ZN4grpc25DefaultHealthCheckService22HealthCheckServiceImpl12WatchReactor11OnWriteDoneEb",
            "__ZN4grpc16ChannelArguments20SetServiceConfigJSONERKNSt3__112basic_stringIcNS1_11char_traitsIcEENS1_9allocatorIcEEEE",
            "__ZN4grpc13ThreadManagerD0Ev",
            "__ZN4grpc24SecureChannelCredentials29CreateChannelWithInterceptorsERKNSt3__112basic_stringIcNS1_11char_traitsIcEENS1_9allocatorIcEEEERKNS_16ChannelArgumentsENS1_6vectorINS1_10unique_ptrINS_12experimental33ClientInterceptorFactoryInterfaceENS1_14default_deleteISG_EEEENS5_ISJ_EEEE",
            "__ZN4grpc21CreateChannelInternalERKNSt3__112basic_stringIcNS0_11char_traitsIcEENS0_9allocatorIcEEEEP12grpc_channelNS0_6vectorINS0_10unique_ptrINS_12experimental33ClientInterceptorFactoryInterfaceENS0_14default_deleteISE_EEEENS4_ISH_EEEE",
            "__ZN4grpc12experimental21TlsCredentialsOptions19set_check_call_hostEb",
            "__Z24grpc_get_endpoint_binderRKNSt3__112basic_stringIcNS_11char_traitsIcEENS_9allocatorIcEEEE",
            "__ZN4grpc12experimental18CallMetricRecorderC1EPN9grpc_core5ArenaE",
            "__ZN4grpc13ClientContext25set_compression_algorithmE26grpc_compression_algorithm",
            "__Z27grpc_remove_endpoint_binderRKNSt3__112basic_stringIcNS_11char_traitsIcEENS_9allocatorIcEEEE",
            "__ZN11grpc_binder14WireWriterImpl21MakeBinderTransactionENS_21BinderTransportTxCodeENSt3__18functionIFN4absl12lts_202206236StatusEPNS_14WritableParcelEEEE",
            "__ZNK4grpc7Channel26GetLoadBalancingPolicyNameEv",
            "__ZN4grpc11CoreCodegen11gpr_cv_waitEP22_opaque_pthread_cond_tP23_opaque_pthread_mutex_t12gpr_timespec",
            "__ZN4grpc17ServerContextBaseD0Ev",
            "__ZThn32_N4grpc7ChannelD1Ev",
            "__ZN4grpc13ThreadManagerD2Ev",
            "__ZN4grpc29GoogleRefreshTokenCredentialsERKNSt3__112basic_stringIcNS0_11char_traitsIcEENS0_9allocatorIcEEEE",
            "__ZN4grpc20AuthPropertyIteratorD1Ev",
            "__ZNK4grpc25DefaultHealthCheckService16GetServingStatusERKNSt3__112basic_stringIcNS1_11char_traitsIcEENS1_9allocatorIcEEEE",
            "__ZN4grpc13ClientContext15set_credentialsERKNSt3__110shared_ptrINS_15CallCredentialsEEE",
            "__ZN4grpc25DefaultHealthCheckService22HealthCheckServiceImplD2Ev",
            "__ZN4grpc17ServerCredentialsD1Ev",
            "__ZN4grpc11CoreCodegen21grpc_slice_buffer_popEP17grpc_slice_buffer",
            "__ZNK4grpc12experimental33TlsCustomVerificationCheckRequest8ip_namesEv",
            "__ZN4grpc7Channel10CallbackCQEv",
            "__ZN4grpc12experimental21TlsCredentialsOptions24set_certificate_providerENSt3__110shared_ptrINS0_28CertificateProviderInterfaceEEE",
            "__ZN4grpc11CoreCodegen30grpc_completion_queue_shutdownEP21grpc_completion_queue",
            "__ZN11grpc_binder24GetConnectionIdGeneratorEv",
            "__ZN4grpc15CompletionQueue23CompletionQueueTLSCache5FlushEPPvPb",
            "__ZN4grpc11CoreCodegen14gpr_mu_destroyEP23_opaque_pthread_mutex_t",
            "__ZN4grpc11CoreCodegen2okEv",
            "__ZN4grpc37HealthCheckServiceServerBuilderOptionC1ENSt3__110unique_ptrINS_27HealthCheckServiceInterfaceENS1_14default_deleteIS3_EEEE",
            "__ZN4grpc6ServerD1Ev",
            "__ZN11grpc_binder21SecurityPolicySetting3SetEN4absl12lts_2022062311string_viewENSt3__110shared_ptrIN4grpc12experimental6binder14SecurityPolicyEEE",
            "__ZN4grpc12experimental43TestOnlyResetGlobalClientInterceptorFactoryEv",
            "__ZN4grpc6Server16ShutdownInternalE12gpr_timespec",
            "__Z35grpc_create_binder_transport_clientNSt3__110unique_ptrIN11grpc_binder6BinderENS_14default_deleteIS2_EEEENS_10shared_ptrIN4grpc12experimental6binder14SecurityPolicyEEE",
            "__ZN11grpc_binder21ConnectionIdGenerator8GenerateEN4absl12lts_2022062311string_viewE",
            "__ZN4grpc11CoreCodegen23grpc_slice_new_with_lenEPvmPFvS1_mE",
            "__ZN4grpc13ResourceQuotaC2Ev",
            "__ZN4grpc12experimental33TlsCustomVerificationCheckRequestC1EP42grpc_tls_custom_verification_check_request",
            "__ZN4grpc17ServerContextBaseC1Ev",
            "__ZN4grpc16ChannelArgumentsC2Ev",
            "__ZNK4grpc6Server15CallbackRequestINS_28GenericCallbackServerContextEE11method_nameEv",
            "__ZN11grpc_binder18EndpointBinderPool17GetEndpointBinderENSt3__112basic_stringIcNS1_11char_traitsIcEENS1_9allocatorIcEEEENS1_8functionIFvNS1_10unique_ptrINS_6BinderENS1_14default_deleteISA_EEEEEEE",
            "__ZN4grpc12experimental29StaticDataCertificateProviderD2Ev",
            "__ZN11grpc_binder14WireReaderImpl18ProcessTransactionEjPNS_14ReadableParcelEi",
            "__ZN4grpc17CreateAuthContextEP9grpc_call",
            "__ZN4grpc21SecureCallCredentialsC2EP21grpc_call_credentials",
            "__ZN4grpc11CoreCodegen14grpc_slice_subE10grpc_slicemm",
            "__ZN4grpc11CoreCodegen14gpr_inf_futureE14gpr_clock_type",
            "__ZN4grpc25DefaultHealthCheckService22HealthCheckServiceImplD0Ev",
            "__ZN4grpc13ServerBuilder15RegisterServiceERKNSt3__112basic_stringIcNS1_11char_traitsIcEENS1_9allocatorIcEEEEPNS_7ServiceE",
            "__ZN4grpc17DynamicThreadPoolC2Ei",
            "__ZN4grpc20AuthPropertyIteratorC1EPK18grpc_auth_propertyPK27grpc_auth_property_iterator",
            "__ZN4grpc25DefaultHealthCheckService11ServiceData16SetServingStatusENS0_13ServingStatusE",
            "__ZN4grpc12experimental30FileWatcherCertificateProviderD0Ev",
            "__ZN4grpc7Channel10CreateCallERKNS_8internal9RpcMethodEPNS_13ClientContextEPNS_15CompletionQueueE",
            "__ZN4grpc12experimental18CallMetricRecorder29RecordMemoryUtilizationMetricEd",
            "__ZN4grpc17DynamicThreadPool13DynamicThread10ThreadFuncEv",
            "__ZN4grpc12experimental19CertificateVerifierC1EP29grpc_tls_certificate_verifier",
            "__ZN4grpc13ClientContext11AddMetadataERKNSt3__112basic_stringIcNS1_11char_traitsIcEENS1_9allocatorIcEEEES9_",
            "__ZN4grpc8internal21RegisterChannelFilterE23grpc_channel_stack_typeiNSt3__18functionIFbRK17grpc_channel_argsEEEPK19grpc_channel_filter",
            "__ZN11grpc_binder27TransportStreamReceiverImpl25NotifyRecvInitialMetadataEiN4absl12lts_202206238StatusOrINSt3__16vectorINS4_4pairINS4_12basic_stringIcNS4_11char_traitsIcEENS4_9allocatorIcEEEESC_EENSA_ISD_EEEEEE",
            "__ZN21grpc_binder_transportD1Ev",
            "__ZN4grpc5Alarm6CancelEv",
            "__ZN4grpc6Server30RegisterCallbackGenericServiceEPNS_22CallbackGenericServiceE",
            "__ZN4grpc13ClientContext17FromServerContextERKNS_17ServerContextBaseENS_18PropagationOptionsE",
            "__ZN4grpc15CompletionQueueC2EP21grpc_completion_queue",
            "__ZN4grpc16ChannelArguments16SetResourceQuotaERKNS_13ResourceQuotaE",
            "__ZN11grpc_binder27TransportStreamReceiverImpl12CancelStreamEi",
            "__ZN4grpc11CoreCodegen11gpr_mu_lockEP23_opaque_pthread_mutex_t",
            "__ZN4grpc16ChannelArgumentsD1Ev",
            "__ZN4grpc7ChannelC2ERKNSt3__112basic_stringIcNS1_11char_traitsIcEENS1_9allocatorIcEEEEP12grpc_channelNS1_6vectorINS1_10unique_ptrINS_12experimental33ClientInterceptorFactoryInterfaceENS1_14default_deleteISF_EEEENS5_ISI_EEEE",
            "__ZN4grpc17ServerContextBase23BindDeadlineAndMetadataE12gpr_timespecP19grpc_metadata_array",
            "__ZN4grpc25DefaultHealthCheckService22HealthCheckServiceImpl12WatchReactorC1EPS1_PKNS_10ByteBufferE",
            "__ZN4grpc6Server8c_serverEv",
            "__ZN4grpc11CoreCodegen27grpc_completion_queue_pluckEP21grpc_completion_queuePv12gpr_timespecS3_",
            "__ZN4grpc6Server27RegisterAsyncGenericServiceEPNS_19AsyncGenericServiceE",
            "__ZN4grpc11CoreCodegen29grpc_slice_buffer_add_indexedEP17grpc_slice_buffer10grpc_slice",
            "__ZN4grpc7Channel16PerformOpsOnCallEPNS_8internal18CallOpSetInterfaceEPNS1_4CallE",
            "__ZN4grpc11CoreCodegen10gpr_time_0E14gpr_clock_type",
            "__ZNK4grpc12experimental33TlsCustomVerificationCheckRequest11email_namesEv",
            "__ZN4grpc25DefaultHealthCheckServiceC2Ev",
            "__ZN4grpc18Timepoint2TimespecERKNSt3__16chrono10time_pointINS1_12system_clockENS1_8durationIxNS0_5ratioILl1ELl1000000EEEEEEEP12gpr_timespec",
            "__ZN4grpc17DynamicThreadPool13DynamicThreadD2Ev",
            "__ZN4grpc17ServerContextBase17BeginCompletionOpEPNS_8internal4CallENSt3__18functionIFvbEEEPNS1_18ServerCallbackCallE",
            "__ZN4grpc12experimental18CallMetricRecorderD2Ev",
            "__ZN4grpc15CallCredentialsD1Ev",
            "__ZN21grpc_binder_transportC2ENSt3__110unique_ptrIN11grpc_binder6BinderENS0_14default_deleteIS3_EEEEbNS0_10shared_ptrIN4grpc12experimental6binder14SecurityPolicyEEE",
            "__ZNK4grpc17ServerContextBase11IsCancelledEv",
            "__ZN4grpc12experimental21TlsCredentialsOptionsC2Ev",
            "__ZN4grpc11CoreCodegen38grpc_completion_queue_create_for_pluckEPv",
            "__ZN4grpc12experimental23BinderServerCredentialsENSt3__110shared_ptrINS0_6binder14SecurityPolicyEEE",
            "__ZN4grpc13ClientContextD2Ev",
            "__ZN4grpc11CoreCodegen37grpc_completion_queue_create_for_nextEPv",
            "__ZN4grpc25MakeChannelArgumentOptionERKNSt3__112basic_stringIcNS0_11char_traitsIcEENS0_9allocatorIcEEEES8_",
            "__ZNK4grpc17SecureAuthContext15GetPeerIdentityEv",
            "__ZN4grpc6Server15CallbackRequestINS_21CallbackServerContextEE14FinalizeResultEPPvPb",
            "__ZN4grpc13ServerBuilder19SetSyncServerOptionENS0_16SyncServerOptionEi",
            "__ZN4grpc12experimental18CallMetricRecorder23RecordUtilizationMetricENS_10string_refEd",
            "__ZN11grpc_binder14WireWriterImpl11RunStreamTxEPNS0_18RunScheduledTxArgs8StreamTxEPNS_14WritableParcelEPb",
            "__ZN4grpc26InsecureChannelCredentialsEv",
            "__ZN4grpc13MetadataBatch11AddMetadataERKNSt3__112basic_stringIcNS1_11char_traitsIcEENS1_9allocatorIcEEEES9_",
            "__ZN4grpc27CompositeChannelCredentialsERKNSt3__110shared_ptrINS_18ChannelCredentialsEEERKNS1_INS_15CallCredentialsEEE",
            "__ZN4grpc6Server18SetGlobalCallbacksEPNS0_15GlobalCallbacksE",
            "__ZNK4grpc17ServerContextBase14census_contextEv",
            "__ZN4grpc11CoreCodegen13grpc_shutdownEv",
            "__ZN4grpc12experimental6binder23UntrustedSecurityPolicyC1Ev",
            "__ZN4grpc25DefaultHealthCheckService22HealthCheckServiceImpl18HandleCheckRequestEPS0_PNS_21CallbackServerContextEPKNS_10ByteBufferEPS5_",
            "__ZN4grpc24SecureChannelCredentialsC2EP24grpc_channel_credentials",
            "__ZN4grpc25DefaultHealthCheckService16SetServingStatusEb",
            "__ZN4grpc11CoreCodegen29grpc_slice_from_copied_bufferEPKvm",
            "__ZN4grpc17ServerContextBase18AddInitialMetadataERKNSt3__112basic_stringIcNS1_11char_traitsIcEENS1_9allocatorIcEEEES9_",
            "__ZN4grpc25DefaultHealthCheckService22HealthCheckServiceImpl12WatchReactorC2EPS1_PKNS_10ByteBufferE",
            "__ZN4grpc24SecureChannelCredentialsC1EP24grpc_channel_credentials",
            "__ZN4grpc16ChannelArguments9SetStringERKNSt3__112basic_stringIcNS1_11char_traitsIcEENS1_9allocatorIcEEEES9_",
            "__ZN4grpc6Server3RefEv",
            "__ZN4grpc12experimental21TlsCredentialsOptions24set_certificate_verifierENSt3__110shared_ptrINS0_19CertificateVerifierEEE",
            "__ZN4grpc11CoreCodegen14grpc_slice_refE10grpc_slice",
            "__ZN4grpc15ServerInterface16BaseAsyncRequestC2EPS0_PNS_13ServerContextEPNS_8internal29ServerAsyncStreamingInterfaceEPNS_15CompletionQueueEPNS_21ServerCompletionQueueEPvb",
            "__ZN4grpc12experimental6binder20RemoveEndpointBinderERKNSt3__112basic_stringIcNS2_11char_traitsIcEENS2_9allocatorIcEEEE",
            "__ZN11grpc_binder20WriteInitialMetadataERKNS_11TransactionEPNS_14WritableParcelE",
            "__ZN4grpc25DefaultHealthCheckService22HealthCheckServiceImpl12WatchReactor10SendHealthENS0_13ServingStatusE",
            "__ZN4grpc25DefaultHealthCheckService22HealthCheckServiceImplD1Ev",
            "__ZN4grpc8internal30ExternalConnectionAcceptorImpl8ShutdownEv",
            "__ZN4grpc15ServerInterface22RegisteredAsyncRequestC1EPS0_PNS_13ServerContextEPNS_8internal29ServerAsyncStreamingInterfaceEPNS_15CompletionQueueEPNS_21ServerCompletionQueueEPvPKcNS5_9RpcMethod7RpcTypeE",
            "__ZNK4grpc17SecureAuthContext5beginEv",
            "__ZNK4grpc17ServerContextBase24ExperimentalGetAuthorityEv",
            "__ZN4grpc25DefaultHealthCheckService22HealthCheckServiceImpl13DecodeRequestERKNS_10ByteBufferEPNSt3__112basic_stringIcNS5_11char_traitsIcEENS5_9allocatorIcEEEE",
            "__ZN4grpc13ThreadManager12WorkerThread3RunEv",
            "__ZN4grpc25DefaultHealthCheckService21GetHealthCheckServiceEv",
            "__ZN4grpc15CompletionQueue23CompletionQueueTLSCacheC1EPS0_",
            "__ZN11grpc_binder14WireWriterImplD0Ev",
            "__ZN4grpc8internal30ExternalConnectionAcceptorImpl11GetAcceptorEv",
            "__ZN4grpc13ResourceQuotaC1Ev",
            "__ZN4grpc20AuthPropertyIteratorppEi",
            "__ZN4grpc12experimental23NoOpCertificateVerifierC2Ev",
            "__ZN4grpc17ServerContextBase19AddTrailingMetadataERKNSt3__112basic_stringIcNS1_11char_traitsIcEENS1_9allocatorIcEEEES9_",
            "__ZN4grpc25DefaultHealthCheckService13RegisterWatchERKNSt3__112basic_stringIcNS1_11char_traitsIcEENS1_9allocatorIcEEEEN9grpc_core13RefCountedPtrINS0_22HealthCheckServiceImpl12WatchReactorEEE",
            "__ZN11grpc_binder27TransportStreamReceiverImpl28RegisterRecvTrailingMetadataEiNSt3__18functionIFvN4absl12lts_202206238StatusOrINS1_6vectorINS1_4pairINS1_12basic_stringIcNS1_11char_traitsIcEENS1_9allocatorIcEEEESD_EENSB_ISE_EEEEEEiEEE",
            "__ZN4grpc12experimental19CertificateVerifier6VerifyEPNS0_33TlsCustomVerificationCheckRequestENSt3__18functionIFvNS_6StatusEEEEPS6_",
            "__ZN4grpc13ClientContext25FromInternalServerContextERKNS_17ServerContextBaseENS_18PropagationOptionsE",
            "__ZN4grpc24CompositeCallCredentialsERKNSt3__110shared_ptrINS_15CallCredentialsEEES5_",
            "__ZN4grpc12experimental38RegisterGlobalClientInterceptorFactoryEPNS0_33ClientInterceptorFactoryInterfaceE",
            "__ZN4grpc12experimental27ExternalCertificateVerifierD1Ev",
            "__ZN4grpc12experimental27ExternalCertificateVerifierC2Ev",
            "__ZN4grpc13ClientContext8set_callEP9grpc_callRKNSt3__110shared_ptrINS_7ChannelEEE",
            "__ZN4grpc11ChannelData16StartTransportOpEP20grpc_channel_elementPNS_11TransportOpE",
            "__ZN4grpc13ServerBuilder17experimental_type30SetAuthorizationPolicyProviderENSt3__110shared_ptrINS_12experimental36AuthorizationPolicyProviderInterfaceEEE",
            "__ZThn32_N4grpc7ChannelD0Ev",
            "__ZN4grpc16ChannelArgumentsC1Ev",
            "__ZN4grpc15CallCredentialsD0Ev",
            "__ZN4grpc15CompletionQueue17AsyncNextInternalEPPvPb12gpr_timespec",
            "__ZN4grpc13ServerBuilder27RegisterAsyncGenericServiceEPNS_19AsyncGenericServiceE",
            "__ZN4grpc37HealthCheckServiceServerBuilderOption13UpdatePluginsEPNSt3__16vectorINS1_10unique_ptrINS_19ServerBuilderPluginENS1_14default_deleteIS4_EEEENS1_9allocatorIS7_EEEE",
            "__ZN4grpc12experimental25ValidateServiceConfigJSONERKNSt3__112basic_stringIcNS1_11char_traitsIcEENS1_9allocatorIcEEEE",
            "__ZN4grpc13ServerBuilder36SetCompressionAlgorithmSupportStatusE26grpc_compression_algorithmb",
            "__ZN4grpc16ChannelArguments23SetCompressionAlgorithmE26grpc_compression_algorithm",
            "__ZN11grpc_binder14WireReaderImpl31ProcessStreamingTransactionImplEjPNS_14ReadableParcelEPi",
            "__ZN4grpc15ServerInterface16BaseAsyncRequest39ContinueFinalizeResultAfterInterceptionEv",
            "__ZN4grpc25InsecureServerCredentialsEv",
            "__ZN4grpc12experimental49CreateCustomInsecureChannelWithInterceptorsFromFdERKNSt3__112basic_stringIcNS1_11char_traitsIcEENS1_9allocatorIcEEEEiRKNS_16ChannelArgumentsENS1_6vectorINS1_10unique_ptrINS0_33ClientInterceptorFactoryInterfaceENS1_14default_deleteISF_EEEENS5_ISI_EEEE",
            "__ZN4grpc16ChannelArguments20SetPointerWithVtableERKNSt3__112basic_stringIcNS1_11char_traitsIcEENS1_9allocatorIcEEEEPvPK23grpc_arg_pointer_vtable",
            "__ZN4grpc12experimental27TlsServerCredentialsOptions21set_cert_request_typeE40grpc_ssl_client_certificate_request_type",
            "__ZN4grpc8internal30ExternalConnectionAcceptorImpl16SetToChannelArgsEPNS_16ChannelArgumentsE",
            "__ZN4grpc13ResourceQuotaD1Ev",
            "__ZN4grpc16ChannelArguments16SetSocketMutatorEP19grpc_socket_mutator",
            "__ZN4grpc15ServerInterface16BaseAsyncRequest14FinalizeResultEPPvPb",
            "__ZN11grpc_binder27TransportStreamReceiverImpl21CancelMessageCallbackEiN4absl12lts_202206236StatusE",
            "__ZN4grpc13ResourceQuota13SetMaxThreadsEi",
            "__ZN4grpc13ThreadManager12WorkerThreadD2Ev",
            "__ZN4grpc13ResourceQuota6ResizeEm",
            "__ZN4grpc13ServerBuilder26SetDefaultCompressionLevelE22grpc_compression_level",
            "__ZN4grpc20AuthPropertyIteratorppEv",
            "__ZN4grpc15CompletionQueueC1EP21grpc_completion_queue",
            "__ZN4grpc16ChannelArgumentsC2ERKS0_",
            "__ZN4grpc8CallData27StartTransportStreamOpBatchEP17grpc_call_elementPNS_22TransportStreamOpBatchE",
            "__ZN4grpc11CoreCodegen16grpc_empty_sliceEv",
            "__ZN4grpc11CoreCodegen36grpc_completion_queue_factory_lookupEPK32grpc_completion_queue_attributes",
            "__ZN4grpc12experimental18CallMetricRecorder23RecordRequestCostMetricENS_10string_refEd",
            "__ZN4grpc13ResourceQuotaC2ERKNSt3__112basic_stringIcNS1_11char_traitsIcEENS1_9allocatorIcEEEE",
            "__ZN4grpc11CoreCodegen13grpc_call_refEP9grpc_call",
            "__ZN9grpc_core13AddBinderPortERKNSt3__112basic_stringIcNS0_11char_traitsIcEENS0_9allocatorIcEEEEP11grpc_serverNS0_8functionIFNS0_10unique_ptrIN11grpc_binder19TransactionReceiverENS0_14default_deleteISE_EEEENSB_IFN4absl12lts_202206236StatusEjPNSD_14ReadableParcelEiEEEEEENS0_10shared_ptrIN4grpc12experimental6binder14SecurityPolicyEEE",
            "__ZN4grpc11ChannelData7GetInfoEP20grpc_channel_elementPK17grpc_channel_info",
            "__ZN4grpc11CoreCodegen11assert_failEPKcS2_i",
            "__ZN4grpc13ServerBuilder16EnableWorkaroundE20grpc_workaround_list",
            "__ZN4grpc32MetadataCredentialsPluginWrapper11DebugStringEPv",
            "__ZNK4grpc10ByteBuffer17DumpToSingleSliceEPNS_5SliceE",
            "__ZN11grpc_binder14WireReaderImpl27ProcessStreamingTransactionEjPNS_14ReadableParcelE",
            "__ZN4grpc14XdsCredentialsERKNSt3__110shared_ptrINS_18ChannelCredentialsEEE",
            "__ZN4grpc5Alarm11SetInternalE12gpr_timespecNSt3__18functionIFvbEEE",
            "__ZN4grpc11CoreCodegen24grpc_metadata_array_initEP19grpc_metadata_array",
            "__ZN4grpc33CreateCustomInsecureChannelFromFdERKNSt3__112basic_stringIcNS0_11char_traitsIcEENS0_9allocatorIcEEEEiRKNS_16ChannelArgumentsE",
            "__ZN4grpc5AlarmD2Ev",
            "__ZNK4grpc12experimental33TlsCustomVerificationCheckRequest11target_nameEv",
            "__ZN4grpc12experimental20XdsServerCredentialsERKNSt3__110shared_ptrINS_17ServerCredentialsEEE",
            "__ZN4grpc25DefaultHealthCheckService22HealthCheckServiceImpl12WatchReactor6OnDoneEv",
            "__ZN11grpc_binder14WireWriterImpl13OnAckReceivedEx",
            "__ZN4grpc20AuthPropertyIteratordeEv",
            "__ZN4grpc8internal30ExternalConnectionAcceptorImpl19HandleNewConnectionEPNS_12experimental26ExternalConnectionAcceptor23NewConnectionParametersE",
            "__ZN4grpc11CoreCodegen11gpr_mu_initEP23_opaque_pthread_mutex_t",
            "__ZN4grpc15ServerInterface19GenericAsyncRequest14FinalizeResultEPPvPb",
            "__ZN4grpc11CoreCodegen8gpr_freeEPv",
            "__ZN4grpc15CompletionQueue23CompletionQueueTLSCacheC2EPS0_",
            "__ZN11grpc_binder14WireWriterImpl7RpcCallENSt3__110unique_ptrINS_11TransactionENS1_14default_deleteIS3_EEEE",
            "__ZN4grpc6Server25UnimplementedAsyncRequest14FinalizeResultEPPvPb",
            "__ZN4grpc13ResourceQuotaC1ERKNSt3__112basic_stringIcNS1_11char_traitsIcEENS1_9allocatorIcEEEE",
            "__ZN4grpc11CoreCodegen11gpr_cv_initEP22_opaque_pthread_cond_t",
            "__ZN4grpc20AuthPropertyIteratorC1Ev",
            "__ZN4grpc17ServerCredentialsC2Ev",
            "__ZN4grpc16ChannelArguments24SetSslTargetNameOverrideERKNSt3__112basic_stringIcNS1_11char_traitsIcEENS1_9allocatorIcEEEE",
            "__ZN4grpc13ThreadManager12WorkerThreadC2EPS0_",
            "__ZN4grpc6Server15RegisterServiceEPKNSt3__112basic_stringIcNS1_11char_traitsIcEENS1_9allocatorIcEEEEPNS_7ServiceE",
            "__ZN4grpc12experimental6binder17GetEndpointBinderERKNSt3__112basic_stringIcNS2_11char_traitsIcEENS2_9allocatorIcEEEE",
            "__ZN11grpc_binder14WireWriterImpl22TryScheduleTransactionEv",
            "__ZN4grpc15ServerInterface19GenericAsyncRequestC1EPS0_PNS_20GenericServerContextEPNS_8internal29ServerAsyncStreamingInterfaceEPNS_15CompletionQueueEPNS_21ServerCompletionQueueEPvb",
            "__ZN4grpc24GoogleDefaultCredentialsEv",
            "__ZN4grpc20XdsServerCredentialsERKNSt3__110shared_ptrINS_17ServerCredentialsEEE",
            "__ZN4grpc13ServerBuilder16SetResourceQuotaERKNS_13ResourceQuotaE",
            "__ZN4grpc15CompletionQueue21CallbackAlternativeCQEv",
            "__ZN4grpc32MetadataCredentialsPluginWrapper12InvokePluginE26grpc_auth_metadata_contextPFvPvPK13grpc_metadatam16grpc_status_codePKcES2_PS3_PmPS6_PS8_",
            "__ZN4grpc12experimental21TlsCredentialsOptions22set_identity_cert_nameERKNSt3__112basic_stringIcNS2_11char_traitsIcEENS2_9allocatorIcEEEE",
            "__Z35grpc_create_binder_transport_serverNSt3__110unique_ptrIN11grpc_binder6BinderENS_14default_deleteIS2_EEEENS_10shared_ptrIN4grpc12experimental6binder14SecurityPolicyEEE",
            "__ZNK4grpc17SecureAuthContext18FindPropertyValuesERKNSt3__112basic_stringIcNS1_11char_traitsIcEENS1_9allocatorIcEEEE",
            "__ZN4grpc11CoreCodegen28grpc_byte_buffer_reader_peekEP23grpc_byte_buffer_readerPP10grpc_slice",
            "__ZN4grpc13ThreadManager12MainWorkLoopEv",
            "__ZN4grpc13ThreadManager8ShutdownEv",
            "__ZN11grpc_binder25CanBeSentInOneTransactionERKNS_11TransactionE",
            "__ZN4grpc16ChannelArguments10SetPointerERKNSt3__112basic_stringIcNS1_11char_traitsIcEENS1_9allocatorIcEEEEPv",
            "__ZN4grpc8CallData22SetPollsetOrPollsetSetEP17grpc_call_elementP19grpc_polling_entity",
            "__ZNK4grpc7Channel20GetServiceConfigJSONEv",
            "__ZNK4grpc17ServerContextBase4peerEv",
            "__ZN4grpc11CoreCodegen17grpc_slice_mallocEm",
            "__ZN4grpc19SetCreateThreadPoolEPFPNS_19ThreadPoolInterfaceEvE",
            "__ZN4grpc15CompletionQueue28ReleaseCallbackAlternativeCQEPS0_",
            "__ZNK4grpc17SecureAuthContext27GetPeerIdentityPropertyNameEv",
            "__ZN4grpc12experimental6binder23UntrustedSecurityPolicyD2Ev",
            "__ZN4grpc15CompletionQueue23CompletionQueueTLSCacheD1Ev",
            "__ZN4grpc13ThreadManagerC2EPKcP19grpc_resource_quotaii",
            "__ZN4grpc11CoreCodegen9cancelledEv",
            "__ZN4grpc15ServerInterface16BaseAsyncRequestD2Ev",
            "__ZN4grpc37HealthCheckServiceServerBuilderOptionC2ENSt3__110unique_ptrINS_27HealthCheckServiceInterfaceENS1_14default_deleteIS3_EEEE",
            "__ZNK4grpc16ChannelArguments24GetSslTargetNameOverrideEv",
            "__ZN4grpc25DefaultHealthCheckService11ServiceData8AddWatchEN9grpc_core13RefCountedPtrINS0_22HealthCheckServiceImpl12WatchReactorEEE",
            "__ZN4grpc12experimental18CallMetricRecorder22CreateSerializedReportEv",
            "__ZN4grpc13ClientContext18SetGlobalCallbacksEPNS0_15GlobalCallbacksE",
            "__ZN9grpc_core26BinderClientChannelFactory16CreateSubchannelERK21grpc_resolved_addressRKNS_11ChannelArgsE",
            "__ZN4grpc15CallCredentialsD2Ev",
            "__ZN4grpc14SslCredentialsERKNS_21SslCredentialsOptionsE",
            "__ZN4grpc8internal29CreateClientBinderChannelImplEPK17grpc_channel_args",
            "__ZN11grpc_binder14WireWriterImpl22RunScheduledTxInternalEPNS0_18RunScheduledTxArgsE",
            "__ZN4grpc25DefaultHealthCheckServiceC1Ev",
            "__ZN11grpc_binder14WireWriterImplD1Ev",
            "__ZN4grpc6Server23UnrefWithPossibleNotifyEv",
            "__ZN4grpc16ChannelArguments4SwapERS0_",
            "__ZN11grpc_binder14WireWriterImplC2ENSt3__110unique_ptrINS_6BinderENS1_14default_deleteIS3_EEEE",
            "__ZNK4grpc12experimental33TlsCustomVerificationCheckRequest11common_nameEv",
            "__ZN4grpc13ServerBuilderD0Ev",
            "__ZN4grpc12experimental35CreateCustomChannelWithInterceptorsERKNSt3__112basic_stringIcNS1_11char_traitsIcEENS1_9allocatorIcEEEERKNS1_10shared_ptrINS_18ChannelCredentialsEEERKNS_16ChannelArgumentsENS1_6vectorINS1_10unique_ptrINS0_33ClientInterceptorFactoryInterfaceENS1_14default_deleteISK_EEEENS5_ISN_EEEE",
            "__ZN4grpc13ServerBuilder16BuildChannelArgsEv",
            "__ZN11grpc_binder14WireReaderImplD0Ev",
            "__ZN4grpc32MetadataCredentialsPluginWrapper11GetMetadataEPv26grpc_auth_metadata_contextPFvS1_PK13grpc_metadatam16grpc_status_codePKcES1_PS3_PmPS6_PS8_",
            "__ZN4grpc11CoreCodegen21grpc_slice_buffer_addEP17grpc_slice_buffer10grpc_slice",
            "__ZN4grpc20AuthPropertyIteratorC2EPK18grpc_auth_propertyPK27grpc_auth_property_iterator",
            "__ZNK4grpc12experimental33TlsCustomVerificationCheckRequest9dns_namesEv",
            "__ZN4grpc11CoreCodegen15grpc_call_unrefEP9grpc_call",
            "__ZN4grpc15ServerInterface22RegisteredAsyncRequestC2EPS0_PNS_13ServerContextEPNS_8internal29ServerAsyncStreamingInterfaceEPNS_15CompletionQueueEPNS_21ServerCompletionQueueEPvPKcNS5_9RpcMethod7RpcTypeE",
            "__ZN4grpc17SecureAuthContext27SetPeerIdentityPropertyNameERKNSt3__112basic_stringIcNS1_11char_traitsIcEENS1_9allocatorIcEEEE",
            "__ZN4grpc11CoreCodegen16gpr_cv_broadcastEP22_opaque_pthread_cond_t",
            "__ZN4grpc13ServerBuilder16AddListeningPortERKNSt3__112basic_stringIcNS1_11char_traitsIcEENS1_9allocatorIcEEEENS1_10shared_ptrINS_17ServerCredentialsEEEPi",
            "__ZN4grpc8internal18ServerCallbackCall12CallOnCancelEPNS0_13ServerReactorE",
            "__ZN4grpc18ChannelCredentialsD2Ev",
            "__ZN4grpc17DynamicThreadPoolC1Ei",
            "__ZN4grpc11CoreCodegen24grpc_byte_buffer_destroyEP16grpc_byte_buffer",
            "__ZN4grpc8internal39CreateDirectBinderChannelImplForTestingENSt3__110unique_ptrIN11grpc_binder6BinderENS1_14default_deleteIS4_EEEEPK17grpc_channel_argsNS1_10shared_ptrINS_12experimental6binder14SecurityPolicyEEE",
            "__ZN4grpc17ServerContextBase18GetCompletionOpTagEv",
            "__ZN4grpc6Server26UnimplementedAsyncResponseC1EPNS0_25UnimplementedAsyncRequestE",
            "__ZN4grpc26ExternalAccountCredentialsERKNSt3__112basic_stringIcNS0_11char_traitsIcEENS0_9allocatorIcEEEERKNS0_6vectorIS6_NS4_IS6_EEEE",
            "__ZN4grpc17ServerContextBase12CompletionOp7FillOpsEPNS_8internal4CallE",
            "__ZN4grpc13CreateChannelERKNSt3__112basic_stringIcNS0_11char_traitsIcEENS0_9allocatorIcEEEERKNS0_10shared_ptrINS_18ChannelCredentialsEEE",
            "__ZN4grpc13ThreadManager23CleanupCompletedThreadsEv",
            "__ZN4grpc5AlarmC2Ev",
            "__ZN4grpc8internal13ClientReactor22InternalScheduleOnDoneENS_6StatusE",
            "__ZN4grpc19AsyncGenericService11RequestCallEPNS_20GenericServerContextEPNS_23ServerAsyncReaderWriterINS_10ByteBufferES4_EEPNS_15CompletionQueueEPNS_21ServerCompletionQueueEPv",
            "__ZN4grpc19CreateCustomChannelERKNSt3__112basic_stringIcNS0_11char_traitsIcEENS0_9allocatorIcEEEERKNS0_10shared_ptrINS_18ChannelCredentialsEEERKNS_16ChannelArgumentsE",
            "__ZN4grpc8internal18ServerCallbackCall14ScheduleOnDoneEb",
            "__ZN4grpc6Server15CallbackRequestINS_28GenericCallbackServerContextEE14FinalizeResultEPPvPb",
            "__ZThn8_N4grpc6ServerD1Ev",
            "__ZN4grpc12experimental15AltsCredentialsERKNS0_22AltsCredentialsOptionsE",
            "__ZN4grpc25DefaultHealthCheckService22HealthCheckServiceImplC2EPS0_",
            "__ZN4grpc13ThreadManager24GetMaxActiveThreadsSoFarEv",
            "__ZN4grpc6Server16InProcessChannelERKNS_16ChannelArgumentsE",
            "__ZN4grpc11CoreCodegen27grpc_metadata_array_destroyEP19grpc_metadata_array",
            "__ZNK4grpc16ChannelArguments14SetChannelArgsEP17grpc_channel_args",
            "__ZN4grpc30GoogleComputeEngineCredentialsEv",
            "__ZN4grpc23SecureServerCredentials24SetAuthMetadataProcessorERKNSt3__110shared_ptrINS_21AuthMetadataProcessorEEE",
            "__ZN4grpc12experimental27HostNameCertificateVerifierC2Ev",
            "__ZN4grpc13ServerBuilderC1Ev",
            "__ZN11grpc_binder14RunScheduledTxEPvN4absl12lts_202206236StatusE",
            "__ZThn8_N4grpc6ServerD0Ev",
            "__ZN4grpc17DynamicThreadPool13DynamicThreadC1EPS0_",
            "__ZN4grpc12experimental21TlsCredentialsOptions16watch_root_certsEv",
            "__ZN4grpc12experimental18CallMetricRecorderD1Ev",
            "__ZN11grpc_binder14WireReaderImplC1ENSt3__110shared_ptrINS_23TransportStreamReceiverEEEbNS2_IN4grpc12experimental6binder14SecurityPolicyEEENS1_8functionIFvvEEE",
            "__ZN4grpc20TimepointHR2TimespecERKNSt3__16chrono10time_pointINS1_12steady_clockENS1_8durationIxNS0_5ratioILl1ELl1000000000EEEEEEEP12gpr_timespec",
            "__ZN4grpc27CreateInsecureChannelFromFdERKNSt3__112basic_stringIcNS0_11char_traitsIcEENS0_9allocatorIcEEEEi",
            "__ZThn8_N4grpc7ChannelD0Ev",
            "__ZN4grpc17ServerContextBaseD1Ev",
            "__ZN4grpc12experimental21AltsServerCredentialsERKNS0_28AltsServerCredentialsOptionsE",
            "__ZN4grpc22AccessTokenCredentialsERKNSt3__112basic_stringIcNS0_11char_traitsIcEENS0_9allocatorIcEEEE",
            "__ZN4grpc13ThreadManager4WaitEv",
            "__ZN4grpc15ServerInterface22RegisteredAsyncRequest12IssueRequestEPvPP16grpc_byte_bufferPNS_21ServerCompletionQueueE",
            "__ZN4grpc17ServerContextBase12CompletionOp5UnrefEv",
            "__ZN4grpc12experimental14TlsCredentialsERKNS0_28TlsChannelCredentialsOptionsE",
            "__ZN4grpc25DefaultHealthCheckService8ShutdownEv",
            "__ZN4grpc6Server18UnrefAndWaitLockedEv",
            "__ZN4grpc12experimental6binder26InternalOnlySecurityPolicyC1Ev",
            "__ZN4grpc18ChannelCredentialsD1Ev",
            "__ZN4grpc12experimental18CallMetricRecorder26RecordCpuUtilizationMetricEd",
            "__ZN4grpc15ServerInterface16BaseAsyncRequestD0Ev",
            "__ZN4grpc18ChannelCredentialsD0Ev",
            "__ZN4grpc20SslServerCredentialsERKNS_27SslServerCredentialsOptionsE",
            "__ZN4grpc11CoreCodegen28grpc_call_cancel_with_statusEP9grpc_call16grpc_status_codePKcPv",
            "__ZN21grpc_binder_transportC1ENSt3__110unique_ptrIN11grpc_binder6BinderENS0_14default_deleteIS3_EEEEbNS0_10shared_ptrIN4grpc12experimental6binder14SecurityPolicyEEE",
            "__ZN4grpc13ServerBuilder15RegisterServiceEPNS_7ServiceE",
            "__ZN4grpc17DynamicThreadPoolD0Ev",
            "__ZN4grpc13ClientContextC1Ev",
            "__ZN4grpc6Server10CallbackCQEv",
            "__ZN4grpc11CoreCodegen36grpc_call_failed_before_recv_messageEPK9grpc_call",
            "__ZN4grpc11CoreCodegen31grpc_byte_buffer_reader_destroyEP23grpc_byte_buffer_reader",
            "__ZN4grpc13ClientContextC2Ev",
            "__ZN4grpc12experimental6binder23UntrustedSecurityPolicy12IsAuthorizedEi",
            "__ZN4grpc6Server4WaitEv",
            "__ZN4grpc12experimental27ExternalCertificateVerifier30DestructInCoreExternalVerifierEPv",
            "__ZNK4grpc8internal13ClientReactor20InternalTrailersOnlyEPK9grpc_call",
            "__ZN4grpc16ChannelArguments26SetLoadBalancingPolicyNameERKNSt3__112basic_stringIcNS1_11char_traitsIcEENS1_9allocatorIcEEEE",
            "__ZN4grpc13ClientContext9TryCancelEv",
            "__ZN11grpc_binder21WriteTrailingMetadataERKNS_11TransactionEPNS_14WritableParcelE",
            "__ZN4grpc11CoreCodegen21grpc_byte_buffer_copyEP16grpc_byte_buffer",
            "__ZN11grpc_binder21SecurityPolicySetting3GetEN4absl12lts_2022062311string_viewE",
            "__ZN4grpc12experimental27ExternalCertificateVerifierD0Ev",
            "__ZN4grpc7VersionEv",
            "__ZN4grpc11CoreCodegen13gpr_mu_unlockEP23_opaque_pthread_mutex_t",
            "__ZN4grpc17DynamicThreadPoolD2Ev",
            "__ZNK4grpc12experimental33TlsCustomVerificationCheckRequest9uri_namesEv",
            "__ZNK4grpc20AuthPropertyIteratorneERKS0_",
            "__ZN11grpc_binder14WireReaderImpl18SendSetupTransportEPNS_6BinderE",
            "__ZN4grpc11CoreCodegen28grpc_byte_buffer_reader_nextEP23grpc_byte_buffer_readerP10grpc_slice",
            "__ZN4grpc13ServerBuilder30RegisterCallbackGenericServiceEPNS_22CallbackGenericServiceE",
            "__ZN4grpc17ServerCredentialsD2Ev",
            "__ZN4grpc13ServerBuilder19SetContextAllocatorENSt3__110unique_ptrINS_16ContextAllocatorENS1_14default_deleteIS3_EEEE",
            "__ZN4grpc6ServerC2EPNS_16ChannelArgumentsENSt3__110shared_ptrINS3_6vectorINS3_10unique_ptrINS_21ServerCompletionQueueENS3_14default_deleteIS7_EEEENS3_9allocatorISA_EEEEEEiiiNS5_INS4_INS_8internal30ExternalConnectionAcceptorImplEEENSB_ISH_EEEEP26grpc_server_config_fetcherP19grpc_resource_quotaNS5_INS6_INS_12experimental33ServerInterceptorFactoryInterfaceENS8_ISP_EEEENSB_ISR_EEEE",
            "__ZN4grpc7Channel8GetStateEb",
            "__ZN4grpc17ServerCredentialsD0Ev",
            "__ZN4grpc12experimental27ExternalCertificateVerifier28VerifyInCoreExternalVerifierEPvP42grpc_tls_custom_verification_check_requestPFvS4_S2_16grpc_status_codePKcES2_PS5_PPc",
            "__ZN4grpc11CoreCodegen27grpc_raw_byte_buffer_createEP10grpc_slicem",
            "__ZN4grpc23CreateDefaultThreadPoolEv",
            "__ZN4grpc24SecureChannelCredentials17CreateChannelImplERKNSt3__112basic_stringIcNS1_11char_traitsIcEENS1_9allocatorIcEEEERKNS_16ChannelArgumentsE",
            "__ZN4grpc12experimental29StaticDataCertificateProviderD0Ev",
            "__ZN4grpc8internal30ExternalConnectionAcceptorImplC2ERKNSt3__112basic_stringIcNS2_11char_traitsIcEENS2_9allocatorIcEEEENS_13ServerBuilder17experimental_type22ExternalConnectionTypeENS2_10shared_ptrINS_17ServerCredentialsEEE",
            "__ZN11grpc_binder27TransportStreamReceiverImpl29CancelInitialMetadataCallbackEiN4absl12lts_202206236StatusE",
            "__ZN4grpc13ThreadManagerD1Ev",
            "__ZN4grpc12experimental30FileWatcherCertificateProviderD1Ev",
            "__ZN11grpc_binder27TransportStreamReceiverImpl19RegisterRecvMessageEiNSt3__18functionIFvN4absl12lts_202206238StatusOrINS1_12basic_stringIcNS1_11char_traitsIcEENS1_9allocatorIcEEEEEEEEE",
            "__ZNK4grpc17SecureAuthContext3endEv",
            "__ZN4grpc24AddInsecureChannelFromFdEPNS_6ServerEi",
            "__ZN4grpc12experimental19CertificateVerifier6CancelEPNS0_33TlsCustomVerificationCheckRequestE",
            "__ZN4grpc12experimental6binder17AddEndpointBinderERKNSt3__112basic_stringIcNS2_11char_traitsIcEENS2_9allocatorIcEEEEPv",
            "__ZN4grpc7Channel18CreateCallInternalERKNS_8internal9RpcMethodEPNS_13ClientContextEPNS_15CompletionQueueEm",
            "__ZN4grpc17DynamicThreadPool11ReapThreadsEPNSt3__14listIPNS0_13DynamicThreadENS1_9allocatorIS4_EEEE",
            "__ZN4grpc12experimental6binder26InternalOnlySecurityPolicy12IsAuthorizedEi",
            "__ZN4grpc17ServerContextBase11CallWrapperD1Ev",
            "__ZN11grpc_binder14WireReaderImplC2ENSt3__110shared_ptrINS_23TransportStreamReceiverEEEbNS2_IN4grpc12experimental6binder14SecurityPolicyEEENS1_8functionIFvvEEE",
            "__ZN4grpc12experimental29MetadataCredentialsFromPluginENSt3__110unique_ptrINS_25MetadataCredentialsPluginENS1_14default_deleteIS3_EEEE19grpc_security_level",
            "__ZN4grpc13ThreadManager12WorkerThreadC1EPS0_",
            "__ZNK4grpc10ByteBuffer4DumpEPNSt3__16vectorINS_5SliceENS1_9allocatorIS3_EEEE",
            "__ZN11grpc_binder21GetEndpointBinderPoolEv",
            "__ZNK4grpc12experimental33TlsCustomVerificationCheckRequest20peer_cert_full_chainEv",
            "__ZN4grpc6Server5StartEPPNS_21ServerCompletionQueueEm",
            "__ZN4grpc7ChannelD0Ev",
            "__ZN4grpc13ServerBuilderD2Ev",
            "__ZN4grpc17ServerContextBaseC2E12gpr_timespecP19grpc_metadata_array",
            "__ZN4grpc7ChannelD2Ev",
            "__ZN11grpc_binder14WireReaderImplD2Ev",
            "__ZN4grpc17ServerContextBaseC2Ev",
            "__ZN4grpc12experimental30FileWatcherCertificateProviderC1ERKNSt3__112basic_stringIcNS2_11char_traitsIcEENS2_9allocatorIcEEEESA_SA_j",
            "__ZN4grpc29MetadataCredentialsFromPluginENSt3__110unique_ptrINS_25MetadataCredentialsPluginENS0_14default_deleteIS2_EEEE",
            "__ZN4grpc12experimental27HostNameCertificateVerifierC1Ev",
            "__ZN4grpc13ServerBuilder18AddCompletionQueueEb",
            "__ZN4grpc13ThreadManager10InitializeEv",
            "__ZN4grpc25DefaultHealthCheckService11ServiceData11RemoveWatchEPNS0_22HealthCheckServiceImpl12WatchReactorE",
            "__ZN4grpc6Server16PerformOpsOnCallEPNS_8internal18CallOpSetInterfaceEPNS1_4CallE",
            "__ZN4grpc13ServerBuilderD1Ev",
            "__ZN4grpc15ServerInterface19GenericAsyncRequestC2EPS0_PNS_20GenericServerContextEPNS_8internal29ServerAsyncStreamingInterfaceEPNS_15CompletionQueueEPNS_21ServerCompletionQueueEPvb",
            "__ZThn8_N4grpc7ChannelD1Ev",
            "__ZN4grpc25MakeChannelArgumentOptionERKNSt3__112basic_stringIcNS0_11char_traitsIcEENS0_9allocatorIcEEEEi",
            "__ZN4grpc13ServerBuilder24InternalAddPluginFactoryEPFNSt3__110unique_ptrINS_19ServerBuilderPluginENS1_14default_deleteIS3_EEEEvE",
            "__ZN4grpc32MetadataCredentialsPluginWrapperC2ENSt3__110unique_ptrINS_25MetadataCredentialsPluginENS1_14default_deleteIS3_EEEE",
            "__ZN4grpc32AuthMetadataProcessorAyncWrapper15InvokeProcessorEP17grpc_auth_contextPK13grpc_metadatamPFvPvS5_mS5_m16grpc_status_codePKcES6_",
            "__ZN4grpc7Channel22WaitForStateChangeImplE23grpc_connectivity_state12gpr_timespec",
            "__ZN4grpc12experimental6binder23UntrustedSecurityPolicyC2Ev",
            "__ZN4grpc16ChannelArguments21SetMaxSendMessageSizeEi",
            "__ZN4grpc6ServerD2Ev",
            "__ZN4grpc23SecureServerCredentials15AddPortToServerERKNSt3__112basic_stringIcNS1_11char_traitsIcEENS1_9allocatorIcEEEEP11grpc_server",
            "__ZN4grpc11CoreCodegen21grpc_call_start_batchEP9grpc_callPK7grpc_opmPvS6_",
            "__ZN11grpc_binder27TransportStreamReceiverImpl17NotifyRecvMessageEiN4absl12lts_202206238StatusOrINSt3__112basic_stringIcNS4_11char_traitsIcEENS4_9allocatorIcEEEEEE",
            "__ZN4grpc11CoreCodegen28grpc_completion_queue_createEPK29grpc_completion_queue_factoryPK32grpc_completion_queue_attributesPv",
            "__ZN4grpc5AlarmD0Ev",
            "__ZN4grpc15CompletionQueue8ShutdownEv",
            "__ZN4grpc31EnableDefaultHealthCheckServiceEb",
            "__ZN4grpc11CoreCodegen9grpc_initEv",
            "__ZN4grpc34ServiceAccountJWTAccessCredentialsERKNSt3__112basic_stringIcNS0_11char_traitsIcEENS0_9allocatorIcEEEEl",
            "__ZN4grpc11CoreCodegen25grpc_call_error_to_stringE15grpc_call_error",
            "__ZN4grpc12experimental6binder23UntrustedSecurityPolicyD1Ev",
            "__ZN4grpc12experimental29ChannelResetConnectionBackoffEPNS_7ChannelE",
            "__ZN4grpc32DefaultHealthCheckServiceEnabledEv",
            "__ZN4grpc12experimental33TlsCustomVerificationCheckRequestC2EP42grpc_tls_custom_verification_check_request",
            "__ZN4grpc16ChannelArguments24SetGrpclbFallbackTimeoutEi",
            "__ZN4grpc13ClientContext25FromCallbackServerContextERKNS_21CallbackServerContextENS_18PropagationOptionsE",
            "__ZN4grpc15CompletionQueue23CompletionQueueTLSCacheD2Ev",
            "__ZN4grpc17ServerContextBase12CompletionOp14FinalizeResultEPPvPb",
            "__ZN4grpc8internal30ExternalConnectionAcceptorImplC1ERKNSt3__112basic_stringIcNS2_11char_traitsIcEENS2_9allocatorIcEEEENS_13ServerBuilder17experimental_type22ExternalConnectionTypeENS2_10shared_ptrINS_17ServerCredentialsEEE",
            "__ZN11grpc_binder14WireReaderImpl14SetupTransportENSt3__110unique_ptrINS_6BinderENS1_14default_deleteIS3_EEEE",
            "__ZN4grpc13ThreadManager10IsShutdownEv",
            "__ZThn8_N4grpc7Channel16PerformOpsOnCallEPNS_8internal18CallOpSetInterfaceEPNS1_4CallE",
            "__ZN4grpc13ThreadManager15MarkAsCompletedEPNS0_12WorkerThreadE",
            "__ZNK4grpc13ClientContext4peerEv",
            "__ZN4grpc12experimental29StaticDataCertificateProviderC2ERKNSt3__112basic_stringIcNS2_11char_traitsIcEENS2_9allocatorIcEEEERKNS2_6vectorINS0_19IdentityKeyCertPairENS6_ISC_EEEE",
            "__ZN4grpc12experimental20TlsServerCredentialsERKNS0_27TlsServerCredentialsOptionsE",
            "__ZN4grpc6Server17experimental_type32InProcessChannelWithInterceptorsERKNS_16ChannelArgumentsENSt3__16vectorINS5_10unique_ptrINS_12experimental33ClientInterceptorFactoryInterfaceENS5_14default_deleteIS9_EEEENS5_9allocatorISC_EEEE",
            "__ZN4grpc12experimental27ExternalCertificateVerifier28CancelInCoreExternalVerifierEPvP42grpc_tls_custom_verification_check_request",
            "__ZN4grpc17ServerContextBase11CallWrapperD2Ev",
            "__ZN4grpc12experimental18CallMetricRecorderC2EPN9grpc_core5ArenaE",
            "__ZN4grpc20GoogleIAMCredentialsERKNSt3__112basic_stringIcNS0_11char_traitsIcEENS0_9allocatorIcEEEES8_",
            "__ZN21grpc_binder_transportD2Ev",
            "__ZN4grpc12experimental22LocalServerCredentialsE23grpc_local_connect_type",
            "__ZN4grpc13ClientContext24SendCancelToInterceptorsEv",
            "__ZN4grpc13ServerBuilder9SetOptionENSt3__110unique_ptrINS_19ServerBuilderOptionENS1_14default_deleteIS3_EEEE",
            "__ZN4grpc16ChannelArguments18SetUserAgentPrefixERKNSt3__112basic_stringIcNS1_11char_traitsIcEENS1_9allocatorIcEEEE",
            "__ZN4grpc17DynamicThreadPool13DynamicThreadD1Ev",
            "__ZN4grpc12experimental21TlsCredentialsOptions29watch_identity_key_cert_pairsEv",
            "__ZN11grpc_binder18EndpointBinderPool17AddEndpointBinderENSt3__112basic_stringIcNS1_11char_traitsIcEENS1_9allocatorIcEEEENS1_10unique_ptrINS_6BinderENS1_14default_deleteIS9_EEEE",
            "__ZN4grpc12experimental19CertificateVerifierD1Ev",
            "__ZN4grpc12experimental6binder26InternalOnlySecurityPolicyD0Ev",
            "__ZN4grpc16ChannelArguments24SetMaxReceiveMessageSizeEi",
            "__ZN4grpc25DefaultHealthCheckService22HealthCheckServiceImpl12WatchReactor17MaybeFinishLockedENS_6StatusE",
            "__ZN4grpc12experimental19CertificateVerifierC2EP29grpc_tls_certificate_verifier",
            "__ZN4grpc12experimental30FileWatcherCertificateProviderD2Ev",
            "__ZN4grpc11CoreCodegen29grpc_slice_from_static_bufferEPKvm",
            "__ZN4grpc6ServerD0Ev",
            "__ZN4grpc12experimental30FileWatcherCertificateProviderC2ERKNSt3__112basic_stringIcNS2_11char_traitsIcEENS2_9allocatorIcEEEESA_SA_j",
            "__ZN4grpc11CoreCodegen13gpr_cv_signalEP22_opaque_pthread_cond_t",
            "__ZN4grpc12experimental29StaticDataCertificateProviderD1Ev",
            "__ZN4grpc11CoreCodegen28grpc_byte_buffer_reader_initEP23grpc_byte_buffer_readerP16grpc_byte_buffer",
            "__ZN4grpc11CoreCodegen21grpc_call_arena_allocEP9grpc_callm",
            "__ZN4grpc7ChannelD1Ev",
            "__ZN4grpc16ChannelArgumentsD2Ev",
            "__ZN4grpc6Server11initializerEv",
            "__ZN4grpc17ServerContextBaseC1E12gpr_timespecP19grpc_metadata_array",
            "__ZN4grpc13ResourceQuotaD0Ev",
            "__ZN4grpc21SecureCallCredentials11ApplyToCallEP9grpc_call",
            "__ZNK4grpc20AuthPropertyIteratoreqERKS0_",
            "__ZNK4grpc6Server15CallbackRequestINS_21CallbackServerContextEE11method_nameEv",
            "__ZN4grpc17ServerContextBase25set_compression_algorithmE26grpc_compression_algorithm",
            "__ZN4grpc12experimental23NoOpCertificateVerifierC1Ev",
            "__ZN4grpc5AlarmD1Ev",
            "__ZN4grpc25DefaultHealthCheckService22HealthCheckServiceImpl12WatchReactor16SendHealthLockedENS0_13ServingStatusE",
            "__ZN4grpc8internal30ExternalConnectionAcceptorImpl5StartEv",
            "__ZN11grpc_binder14WireWriterImpl7SendAckEx",
            "__ZN4grpc13ServerBuilder13BuildAndStartEv",
            "__ZN4grpc17DynamicThreadPool10ThreadFuncEv",
            "__ZN4grpc25DefaultHealthCheckService22HealthCheckServiceImpl14EncodeResponseENS0_13ServingStatusEPNS_10ByteBufferE",
            "__ZN4grpc17SecureAuthContext11AddPropertyERKNSt3__112basic_stringIcNS1_11char_traitsIcEENS1_9allocatorIcEEEERKNS_10string_refE",
            "__ZNK4grpc17SecureAuthContext19IsPeerAuthenticatedEv",
            "__ZN4grpc17DynamicThreadPool3AddERKNSt3__18functionIFvvEEE",
            "__ZN4grpc11CoreCodegen21grpc_slice_split_headEP10grpc_slicem",
            "__ZN4grpc11CoreCodegen23grpc_byte_buffer_lengthEP16grpc_byte_buffer",
            "__ZN4grpc12experimental16LocalCredentialsE23grpc_local_connect_type",
            "__ZN4grpc20AuthPropertyIteratorD2Ev",
            "__ZN4grpc12experimental29StsCredentialsOptionsFromJsonERKNSt3__112basic_stringIcNS1_11char_traitsIcEENS1_9allocatorIcEEEEPNS0_21StsCredentialsOptionsE",
            "__ZN4grpc11CoreCodegen10gpr_mallocEm",
            "__ZN4grpc12experimental30StsCredentialsCppToCoreOptionsERKNS0_21StsCredentialsOptionsE",
            "__ZN11grpc_binder14WireReaderImplD1Ev",
            "__ZN4grpc25DefaultHealthCheckService22HealthCheckServiceImpl12WatchReactor8OnCancelEv",
            "__ZN4grpc12experimental28TlsChannelCredentialsOptions23set_verify_server_certsEb",
            "__ZN4grpc17DynamicThreadPool13DynamicThreadC2EPS0_",
            "__ZN4grpc20AuthPropertyIteratorC2Ev",
            "__ZN4grpc5Alarm11SetInternalEPNS_15CompletionQueueE12gpr_timespecPv",
            "__ZN4grpc12experimental21TlsCredentialsOptions17set_crl_directoryERKNSt3__112basic_stringIcNS2_11char_traitsIcEENS2_9allocatorIcEEEE",
            "__ZN4grpc6ServerC1EPNS_16ChannelArgumentsENSt3__110shared_ptrINS3_6vectorINS3_10unique_ptrINS_21ServerCompletionQueueENS3_14default_deleteIS7_EEEENS3_9allocatorISA_EEEEEEiiiNS5_INS4_INS_8internal30ExternalConnectionAcceptorImplEEENSB_ISH_EEEEP26grpc_server_config_fetcherP19grpc_resource_quotaNS5_INS6_INS_12experimental33ServerInterceptorFactoryInterfaceENS8_ISP_EEEENSB_ISR_EEEE",
            "__ZN4grpc12experimental19CertificateVerifier14AsyncCheckDoneEP42grpc_tls_custom_verification_check_requestPv16grpc_status_codePKc",
            "__ZN4grpc17ServerContextBase24CreateCallMetricRecorderEv",
            "__ZN4grpc18ChannelCredentialsC2Ev",
            "__ZN11grpc_binder27TransportStreamReceiverImpl27RegisterRecvInitialMetadataEiNSt3__18functionIFvN4absl12lts_202206238StatusOrINS1_6vectorINS1_4pairINS1_12basic_stringIcNS1_11char_traitsIcEENS1_9allocatorIcEEEESD_EENSB_ISE_EEEEEEEEE",
            "__ZN11grpc_binder24GetSecurityPolicySettingEv",
            "__ZN11grpc_binder27TransportStreamReceiverImpl22OnRecvTrailingMetadataEi",
            "__ZN4grpc18Timespec2TimepointE12gpr_timespec",
            "__ZN4grpc13ServerBuilder30SetDefaultCompressionAlgorithmE26grpc_compression_algorithm",
            "__ZN4grpc12experimental28StsCredentialsOptionsFromEnvEPNS0_21StsCredentialsOptionsE",
            "__ZN11grpc_binder14WireWriterImplC1ENSt3__110unique_ptrINS_6BinderENS1_14default_deleteIS3_EEEE",
            "__ZNK4grpc12experimental33TlsCustomVerificationCheckRequest9peer_certEv",
            "__ZN4grpc12experimental6binder26InternalOnlySecurityPolicyD1Ev",
            "__ZNK4grpc17ServerContextBase9TryCancelEv",
            "__ZN4grpc12experimental27ExternalCertificateVerifierD2Ev",
            "__ZN4grpc32MetadataCredentialsPluginWrapperC1ENSt3__110unique_ptrINS_25MetadataCredentialsPluginENS1_14default_deleteIS3_EEEE",
            "__ZN4grpc17ServerContextBaseD2Ev",
            "__ZN4grpc32AuthMetadataProcessorAyncWrapper7DestroyEPv",
            "__ZN4grpc7ChannelC1ERKNSt3__112basic_stringIcNS1_11char_traitsIcEENS1_9allocatorIcEEEEP12grpc_channelNS1_6vectorINS1_10unique_ptrINS_12experimental33ClientInterceptorFactoryInterfaceENS1_14default_deleteISF_EEEENS5_ISI_EEEE",
            "__ZN4grpc25DefaultHealthCheckService15UnregisterWatchERKNSt3__112basic_stringIcNS1_11char_traitsIcEENS1_9allocatorIcEEEEPNS0_22HealthCheckServiceImpl12WatchReactorE",
            "__ZN4grpc12experimental6binder26InternalOnlySecurityPolicyC2Ev",
            "__ZN4grpc11CoreCodegen14gpr_cv_destroyEP22_opaque_pthread_cond_t",
            "__ZN11grpc_binder27TransportStreamReceiverImpl30CancelTrailingMetadataCallbackEiN4absl12lts_202206236StatusE",
            "__ZN4grpc11CoreCodegen29grpc_slice_new_with_user_dataEPvmPFvS1_ES1_",
            "__ZN4grpc12experimental21TlsCredentialsOptionsC1Ev",
            "__ZN4grpc8internal22WrapChannelCredentialsEP24grpc_channel_credentials",
            "__ZN4grpc12experimental21TlsCredentialsOptions18set_root_cert_nameERKNSt3__112basic_stringIcNS2_11char_traitsIcEENS2_9allocatorIcEEEE",
            "__ZN11grpc_binder14WireWriterImplD2Ev",
            "__ZNK4grpc10ByteBuffer14TrySingleSliceEPNS_5SliceE",
            "__ZN4grpc16ChannelArguments6SetIntERKNSt3__112basic_stringIcNS1_11char_traitsIcEENS1_9allocatorIcEEEEi",
            "__ZN4grpc25DefaultHealthCheckService16SetServingStatusERKNSt3__112basic_stringIcNS1_11char_traitsIcEENS1_9allocatorIcEEEEb",
            "__ZN4grpc13ThreadManager12WorkerThreadD1Ev",
            "__ZN4grpc6Server26UnimplementedAsyncResponseC2EPNS0_25UnimplementedAsyncRequestE",
            "__ZN4grpc11CoreCodegen29grpc_completion_queue_destroyEP21grpc_completion_queue",
            "__ZN4grpc5AlarmC1Ev",
            "__ZN4grpc6Server16AddListeningPortERKNSt3__112basic_stringIcNS1_11char_traitsIcEENS1_9allocatorIcEEEEPNS_17ServerCredentialsE",
            "__ZN11grpc_binder14WireWriterImpl15RpcCallFastPathENSt3__110unique_ptrINS_11TransactionENS1_14default_deleteIS3_EEEE"
          ]
        }
      },
      {
        "data": {
          "weak": [
            "__ZTIN4grpc19ServerBuilderOptionE",
            "__ZTIN4grpc8internal13ServerReactorE",
            "__ZTSN9grpc_core20InternallyRefCountedINS_19SubchannelConnectorELNS_13UnrefBehaviorE0EEE",
            "__ZTINSt3__120__shared_ptr_emplaceINS_6vectorINS_10unique_ptrIN4grpc21ServerCompletionQueueENS_14default_deleteIS4_EEEENS_9allocatorIS7_EEEENS8_ISA_EEEE",
            "__ZTSN4grpc20CoreCodegenInterfaceE",
            "__ZTSNSt3__120__shared_ptr_pointerIPN4grpc6Server15GlobalCallbacksENS_10shared_ptrIS3_E27__shared_ptr_default_deleteIS3_S3_EENS_9allocatorIS3_EEEE",
            "__ZTIN4grpc20GrpcLibraryInterfaceE",
            "__ZTSN4grpc6Server15CallbackRequestINS_21CallbackServerContextEEE",
            "__ZTIN9grpc_core8WakeableE",
            "__ZTSN4grpc8internal27InterceptorBatchMethodsImplE",
            "__ZTSN4grpc11AuthContextE",
            "__ZTIN4grpc12experimental26ExternalConnectionAcceptorE",
            "__ZTIN9grpc_core15activity_detail10UnwakeableE",
            "__ZTSNSt3__118basic_stringstreamIcNS_11char_traitsIcEENS_9allocatorIcEEEE",
            "__ZTIN4grpc8internal30CallbackServerStreamingHandlerINS_10ByteBufferES2_EE",
            "__ZTIN9grpc_core7ExecCtxE",
            "__ZTSN4grpc28GenericCallbackServerContextE",
            "__ZTIN4grpc8internal17CallOpSendMessageE",
            "__ZTINSt3__110__function6__baseIFPN4grpc17ServerBidiReactorINS2_10ByteBufferES4_EEPNS2_21CallbackServerContextEEEE",
            "__ZTIN4grpc7ServiceE",
            "__ZTIN9grpc_core20BinderServerListenerE",
            "__ZTSN4grpc6Server11SyncRequestE",
            "__ZTSN4grpc8internal8CallNoOpILi5EEE",
            "__ZTSN4grpc8internal9CallOpSetINS0_25CallOpSendInitialMetadataENS0_17CallOpSendMessageENS0_8CallNoOpILi3EEENS4_ILi4EEENS4_ILi5EEENS4_ILi6EEEEE",
            "__ZTSNSt3__110__function6__funcIZN4grpc8internal17CallOpSendMessage14SendMessagePtrINS2_10ByteBufferEEENS2_6StatusEPKT_NS2_12WriteOptionsEEUlPKvE_NS_9allocatorISE_EEFS7_SD_EEE",
            "__ZTSN4grpc8internal17CallOpRecvMessageINS_10ByteBufferEEE",
            "__ZTINSt3__120__shared_ptr_emplaceIN4grpc17SecureAuthContextENS_9allocatorIS2_EEEE",
            "__ZTIN4grpc15ServerInterface22RegisteredAsyncRequestE",
            "__ZTSN4grpc8internal20CallbackUnaryHandlerINS_10ByteBufferES2_EE",
            "__ZTSN9grpc_core20BinderServerListenerE",
            "__ZTIN9grpc_core20ClientChannelFactoryE",
            "__ZTSN4grpc12experimental28CertificateProviderInterfaceE",
            "__ZTIN4grpc17RpcAllocatorStateE",
            "__ZTSNSt3__110shared_ptrIN4grpc7ChannelEE27__shared_ptr_default_deleteIS2_S2_EE",
            "__ZTSN4grpc20GenericServerContextE",
            "__ZTINSt3__115basic_stringbufIcNS_11char_traitsIcEENS_9allocatorIcEEEE",
            "__ZTSN9grpc_core10OrphanableE",
            "__ZTSN4grpc32MetadataCredentialsPluginWrapperE",
            "__ZTIN4grpc27HealthCheckServiceInterfaceE",
            "__ZTSN4grpc6Server15GlobalCallbacksE",
            "__ZTSNSt3__110__function6__baseIFN4grpc6StatusEPKvEEE",
            "__ZTSN4grpc8internal8CallNoOpILi2EEE",
            "__ZTIN4grpc8internal29ServerAsyncStreamingInterfaceE",
            "__ZTIN4grpc8internal8CallNoOpILi6EEE",
            "__ZTSN4grpc8internal13MethodHandlerE",
            "__ZTSN4grpc15CompletionQueueE",
            "__ZTIN4grpc8internal25CallOpSendInitialMetadataE",
            "__ZTINSt3__110__function6__baseIFvN4absl12lts_202206238StatusOrINS_6vectorINS_4pairINS_12basic_stringIcNS_11char_traitsIcEENS_9allocatorIcEEEESC_EENSA_ISD_EEEEEEEEE",
            "__ZTSN4grpc28DefaultGlobalClientCallbacksE",
            "__ZTINSt3__120__shared_ptr_pointerIPN4grpc6Server15GlobalCallbacksENS_10shared_ptrIS3_E27__shared_ptr_default_deleteIS3_S3_EENS_9allocatorIS3_EEEE",
            "__ZTSNSt3__120__shared_ptr_emplaceIN4grpc17SecureAuthContextENS_9allocatorIS2_EEEE",
            "__ZTIN4grpc13ServerContextE",
            "__ZTINSt3__120__shared_ptr_emplaceIN11grpc_binder14WireWriterImplENS_9allocatorIS2_EEEE",
            "__ZTIN4grpc20ServerCallbackWriterINS_10ByteBufferEEE",
            "__ZTSN4grpc8internal18ErrorMethodHandlerILNS_10StatusCodeE12EEE",
            "__ZTSNSt3__120__shared_ptr_emplaceINS_6vectorINS_10unique_ptrIN4grpc21ServerCompletionQueueENS_14default_deleteIS4_EEEENS_9allocatorIS7_EEEENS8_ISA_EEEE",
            "__ZTIN11grpc_binder10WireReaderE",
            "__ZTINSt3__120__shared_ptr_pointerIPN4grpc23SecureServerCredentialsENS_10shared_ptrINS1_17ServerCredentialsEE27__shared_ptr_default_deleteIS5_S2_EENS_9allocatorIS2_EEEE",
            "__ZTIN4grpc8internal9CallOpSetINS0_25CallOpSendInitialMetadataENS0_17CallOpSendMessageENS0_22CallOpServerSendStatusENS0_8CallNoOpILi4EEENS5_ILi5EEENS5_ILi6EEEEE",
            "__ZTSNSt3__110shared_ptrIN4grpc18ChannelCredentialsEE27__shared_ptr_default_deleteIS2_NS1_24SecureChannelCredentialsEEE",
            "__ZTIN4grpc8internal8CallNoOpILi2EEE",
            "__ZTIN4grpc8internal30CallbackServerStreamingHandlerINS_10ByteBufferES2_E24ServerCallbackWriterImplE",
            "__ZTIN4grpc8internal9AlarmImplE",
            "__ZTIN4grpc8internal9CallOpSetINS0_17CallOpRecvMessageINS_10ByteBufferEEENS0_8CallNoOpILi2EEENS5_ILi3EEENS5_ILi4EEENS5_ILi5EEENS5_ILi6EEEEE",
            "__ZTSN4grpc20GrpcLibraryInterfaceE",
            "__ZTSN4grpc8internal8CallNoOpILi4EEE",
            "__ZTSN4grpc26ServerCallbackReaderWriterINS_10ByteBufferES1_EE",
            "__ZTSN4grpc8internal13ServerReactorE",
            "__ZTSN4grpc8internal18ErrorMethodHandlerILNS_10StatusCodeE8EEE",
            "__ZTSN4grpc8internal9CallOpSetINS0_25CallOpSendInitialMetadataENS0_17CallOpSendMessageENS0_22CallOpServerSendStatusENS0_8CallNoOpILi4EEENS5_ILi5EEENS5_ILi6EEEEE",
            "__ZTIN9grpc_core19SubchannelConnectorE",
            "__ZTIN4grpc21CallbackServerContextE",
            "__ZTIN4grpc21ServerCompletionQueueE",
            "__ZTSNSt3__120__shared_ptr_emplaceIN4grpc23SecureServerCredentialsENS_9allocatorIS2_EEEE",
            "__ZTINSt3__110__function6__baseIFvN4absl12lts_202206238StatusOrINS_6vectorINS_4pairINS_12basic_stringIcNS_11char_traitsIcEENS_9allocatorIcEEEESC_EENSA_ISD_EEEEEEiEEE",
            "__ZTSNSt3__110__function6__baseIFN4absl12lts_202206236StatusEjPN11grpc_binder14ReadableParcelEiEEE",
            "__ZTIN4grpc8internal8CallNoOpILi5EEE",
            "__ZTSN4grpc8internal20AsyncWriterInterfaceINS_10ByteBufferEEE",
            "__ZTSN4grpc8internal9AlarmImplE",
            "__ZTIN4grpc8internal8CallNoOpILi3EEE",
            "__ZTSN4grpc6Server15CallbackRequestINS_28GenericCallbackServerContextEEE",
            "__ZTIN4grpc8internal9CallOpSetINS0_25CallOpSendInitialMetadataENS0_17CallOpSendMessageENS0_8CallNoOpILi3EEENS4_ILi4EEENS4_ILi5EEENS4_ILi6EEEEE",
            "__ZTSNSt3__110__function6__baseIFPN4grpc17ServerBidiReactorINS2_10ByteBufferES4_EEPNS2_21CallbackServerContextEEEE",
            "__ZTIN4grpc18ServerUnaryReactorE",
            "__ZTSN4grpc6Server24SyncRequestThreadManagerE",
            "__ZTIN4grpc8internal9CallOpSetINS0_25CallOpSendInitialMetadataENS0_22CallOpServerSendStatusENS0_8CallNoOpILi3EEENS4_ILi4EEENS4_ILi5EEENS4_ILi6EEEEE",
            "__ZTSNSt3__117bad_function_callE",
            "__ZTSN4grpc7ServiceE",
            "__ZTSN4grpc19ServerCallbackUnaryE",
            "__ZTSN9grpc_core15activity_detail10UnwakeableE",
            "__ZTSN9grpc_core19PolymorphicRefCountE",
            "__ZTSN4grpc17ServerBidiReactorINS_10ByteBufferES1_EE",
            "__ZTIN4grpc8internal18ErrorMethodHandlerILNS_10StatusCodeE12EEE",
            "__ZTSN4grpc19ThreadPoolInterfaceE",
            "__ZTSNSt3__120__shared_ptr_pointerIPN4grpc24SecureChannelCredentialsENS_10shared_ptrINS1_18ChannelCredentialsEE27__shared_ptr_default_deleteIS5_S2_EENS_9allocatorIS2_EEEE",
            "__ZTIN4grpc8internal8CallHookE",
            "__ZTIN4grpc6Server15CallbackRequestINS_21CallbackServerContextEEE",
            "__ZTSN4grpc8internal17FinishOnlyReactorINS_18ServerUnaryReactorEEE",
            "__ZTSNSt3__110__function6__baseIFvPN9grpc_core17CoreConfiguration7BuilderEEEE",
            "__ZTIN4grpc28GenericCallbackServerContextE",
            "__ZTSN4grpc27HealthCheckServiceInterfaceE",
            "__ZTSN4grpc8internal19CallbackBidiHandlerINS_10ByteBufferES2_EE",
            "__ZTIN4grpc17ServerContextBase7ReactorE",
            "__ZTIN4grpc8internal17CallOpRecvMessageINS_10ByteBufferEEE",
            "__ZTIN4grpc28DefaultGlobalClientCallbacksE",
            "__ZTINSt3__117bad_function_callE",
            "__ZTSN9grpc_core20InternallyRefCountedIN11grpc_binder10WireReaderELNS_13UnrefBehaviorE0EEE",
            "__ZTSNSt3__120__shared_ptr_emplaceIN4grpc8internal30ExternalConnectionAcceptorImplENS_9allocatorIS3_EEEE",
            "__ZTSNSt3__110shared_ptrIN4grpc15CallCredentialsEE27__shared_ptr_default_deleteIS2_NS1_21SecureCallCredentialsEEE",
            "__ZTSN11grpc_binder10WireReaderE",
            "__ZTIN4grpc20GenericServerContextE",
            "__ZTIN4grpc26ServerCallbackReaderWriterINS_10ByteBufferES1_EE",
            "__ZTIN4grpc6Server26UnimplementedAsyncResponseE",
            "__ZTSN4grpc15ServerInterfaceE",
            "__ZTIN4grpc8internal18CompletionQueueTagE",
            "__ZTIN4grpc6Server15CallbackRequestINS_28GenericCallbackServerContextEEE",
            "__ZTINSt3__118basic_stringstreamIcNS_11char_traitsIcEENS_9allocatorIcEEEE",
            "__ZTSNSt3__110__function6__baseIFN4absl12lts_202206236StatusEPN11grpc_binder14WritableParcelEEEE",
            "__ZTSNSt3__110__function6__baseIFPN4grpc18ServerUnaryReactorEPNS2_21CallbackServerContextEPKNS2_10ByteBufferEPS7_EEE",
            "__ZTIN4grpc12experimental23InterceptorBatchMethodsE",
            "__ZTSN9grpc_core20ClientChannelFactoryE",
            "__ZTSNSt3__115basic_stringbufIcNS_11char_traitsIcEENS_9allocatorIcEEEE",
            "__ZTSN4grpc8internal17FinishOnlyReactorINS_18ServerWriteReactorINS_10ByteBufferEEEEE",
            "__ZTIN4grpc8internal9CallOpSetINS0_25CallOpSendInitialMetadataENS0_8CallNoOpILi2EEENS3_ILi3EEENS3_ILi4EEENS3_ILi5EEENS3_ILi6EEEEE",
            "__ZTIN4grpc15CompletionQueueE",
            "__ZTSNSt3__120__shared_ptr_pointerIPN4grpc21SecureCallCredentialsENS_10shared_ptrINS1_15CallCredentialsEE27__shared_ptr_default_deleteIS5_S2_EENS_9allocatorIS2_EEEE",
            "__ZTIN9grpc_core10OrphanableE",
            "__ZTSNSt3__110__function6__baseIFN9grpc_core6Server19BatchCallAllocationEvEEE",
            "__ZTSN9grpc_core10RefCountedIN4grpc25DefaultHealthCheckService22HealthCheckServiceImpl12WatchReactorENS_19PolymorphicRefCountELNS_13UnrefBehaviorE0EEE",
            "__ZTSN4grpc21CallbackServerContextE",
            "__ZTIN4grpc8internal11GrpcLibraryE",
            "__ZTINSt3__110__function6__baseIFN9grpc_core6Server24RegisteredCallAllocationEvEEE",
            "__ZTINSt3__120__shared_ptr_emplaceIN4grpc8internal30ExternalConnectionAcceptorImplENS_9allocatorIS3_EEEE",
            "__ZTINSt3__120__shared_ptr_pointerIPN4grpc21SecureCallCredentialsENS_10shared_ptrINS1_15CallCredentialsEE27__shared_ptr_default_deleteIS5_S2_EENS_9allocatorIS2_EEEE",
            "__ZTIN11grpc_binder10WireWriterE",
            "__ZTIN4grpc18GrpcLibraryCodegenE",
            "__ZTIN9grpc_core10RefCountedIN4grpc25DefaultHealthCheckService22HealthCheckServiceImpl12WatchReactorENS_19PolymorphicRefCountELNS_13UnrefBehaviorE0EEE",
            "__ZTINSt3__110__function6__baseIFPN4grpc18ServerUnaryReactorEPNS2_21CallbackServerContextEPKNS2_10ByteBufferEPS7_EEE",
            "__ZTSNSt3__110__function6__baseIFvN4grpc6StatusEEEE",
            "__ZTSNSt3__123enable_shared_from_thisIN4grpc7ChannelEEE",
            "__ZTIN4grpc8internal20CallbackUnaryHandlerINS_10ByteBufferES2_E23ServerCallbackUnaryImplE",
            "__ZTINSt3__110__function6__baseIFvvEEE",
            "__ZTIN4grpc23ServerAsyncReaderWriterINS_10ByteBufferES1_EE",
            "__ZTINSt3__110__function6__baseIFPN4grpc18ServerWriteReactorINS2_10ByteBufferEEEPNS2_21CallbackServerContextEPKS4_EEE",
            "__ZTSN4grpc13ClientContext15GlobalCallbacksE",
            "__ZTSNSt3__110__function6__baseIFPN4grpc18ServerWriteReactorINS2_10ByteBufferEEEPNS2_21CallbackServerContextEPKS4_EEE",
            "__ZTSNSt3__120__shared_ptr_emplaceIN11grpc_binder14WireWriterImplENS_9allocatorIS2_EEEE",
            "__ZTSN9grpc_core19SubchannelConnectorE",
            "__ZTSN9grpc_core8WakeableE",
            "__ZTSN4grpc18GrpcLibraryCodegenE",
            "__ZTINSt3__110__function6__baseIFvbEEE",
            "__ZTSN4grpc8internal29ServerAsyncStreamingInterfaceE",
            "__ZTSN4grpc15ServerInterface22RegisteredAsyncRequestE",
            "__ZTIN4grpc8internal19CallbackBidiHandlerINS_10ByteBufferES2_EE",
            "__ZTIN4grpc6Server24SyncRequestThreadManagerE",
            "__ZTIN4grpc22CallbackGenericServiceE",
            "__ZTSN4grpc17ServerContextBase7ReactorE",
            "__ZTSN4grpc8internal20AsyncReaderInterfaceINS_10ByteBufferEEE",
            "__ZTINSt3__120__shared_ptr_pointerIPN4grpc24SecureChannelCredentialsENS_10shared_ptrINS1_18ChannelCredentialsEE27__shared_ptr_default_deleteIS5_S2_EENS_9allocatorIS2_EEEE",
            "__ZTINSt3__110__function6__baseIFN4absl12lts_202206236StatusEjPN11grpc_binder14ReadableParcelEiEEE",
            "__ZTIN4grpc17ServerBidiReactorINS_10ByteBufferES1_EE",
            "__ZTSN4grpc8internal9CallOpSetINS0_25CallOpSendInitialMetadataENS0_22CallOpServerSendStatusENS0_8CallNoOpILi3EEENS4_ILi4EEENS4_ILi5EEENS4_ILi6EEEEE",
            "__ZTSN11grpc_binder10WireWriterE",
            "__ZTSN4grpc17RpcAllocatorStateE",
            "__ZTSNSt3__120__shared_ptr_pointerIPN4grpc23SecureServerCredentialsENS_10shared_ptrINS1_17ServerCredentialsEE27__shared_ptr_default_deleteIS5_S2_EENS_9allocatorIS2_EEEE",
            "__ZTSN4grpc8internal20DefaultMessageHolderINS_10ByteBufferES2_EE",
            "__ZTSN4grpc8internal8CallNoOpILi3EEE",
            "__ZTINSt3__110__function6__baseIFN4absl12lts_202206236StatusEPN11grpc_binder14WritableParcelEEEE",
            "__ZTSN4grpc19ServerBuilderOptionE",
            "__ZTINSt3__110__function6__baseIFvN4grpc6StatusEEEE",
            "__ZTSN4grpc8internal18InterceptedChannelE",
            "__ZTSN4grpc8internal22CallOpServerSendStatusE",
            "__ZTIN9grpc_core6Server17ListenerInterfaceE",
            "__ZTINSt3__110__function6__baseIFvNS_10unique_ptrIN11grpc_binder6BinderENS_14default_deleteIS4_EEEEEEE",
            "__ZTIN4grpc13MessageHolderINS_10ByteBufferES1_EE",
            "__ZTIN4grpc16ChannelInterfaceE",
            "__ZTSN4grpc23ServerAsyncReaderWriterINS_10ByteBufferES1_EE",
            "__ZTSN4grpc8internal11GrpcLibraryE",
            "__ZTSN4grpc13ServerContextE",
            "__ZTSN4grpc8internal9CallOpSetINS0_17CallOpRecvMessageINS_10ByteBufferEEENS0_8CallNoOpILi2EEENS5_ILi3EEENS5_ILi4EEENS5_ILi5EEENS5_ILi6EEEEE",
            "__ZTSN4grpc8internal9CallOpSetINS0_25CallOpSendInitialMetadataENS0_8CallNoOpILi2EEENS3_ILi3EEENS3_ILi4EEENS3_ILi5EEENS3_ILi6EEEEE",
            "__ZTSN4grpc8internal17FinishOnlyReactorINS_17ServerBidiReactorINS_10ByteBufferES3_EEEE",
            "__ZTSNSt3__110shared_ptrIN4grpc17ServerCredentialsEE27__shared_ptr_default_deleteIS2_NS1_23SecureServerCredentialsEEE",
            "__ZTIN4grpc8internal18CallOpSetInterfaceE",
            "__ZTSN4grpc13MessageHolderINS_10ByteBufferES1_EE",
            "__ZTIN11grpc_binder23TransportStreamReceiverE",
            "__ZTIN4grpc18ServerWriteReactorINS_10ByteBufferEEE",
            "__ZTINSt3__110__function6__funcIZN4grpc8internal17CallOpSendMessage14SendMessagePtrINS2_10ByteBufferEEENS2_6StatusEPKT_NS2_12WriteOptionsEEUlPKvE_NS_9allocatorISE_EEFS7_SD_EEE",
            "__ZTIN4grpc8internal20AsyncWriterInterfaceINS_10ByteBufferEEE",
            "__ZTIN4grpc8internal18InterceptedChannelE",
            "__ZTSN4grpc12experimental6binder14SecurityPolicyE",
            "__ZTSN4grpc8internal18ServerCallbackCallE",
            "__ZTSN4grpc12experimental23InterceptorBatchMethodsE",
            "__ZTSNSt3__110__function6__baseIFvN4absl12lts_202206238StatusOrINS_6vectorINS_4pairINS_12basic_stringIcNS_11char_traitsIcEENS_9allocatorIcEEEESC_EENSA_ISD_EEEEEEiEEE",
            "__ZTSN4grpc8internal18CallOpSetInterfaceE",
            "__ZTIN4grpc8internal20DefaultMessageHolderINS_10ByteBufferES2_EE",
            "__ZTINSt3__120__shared_ptr_emplaceIN4grpc23SecureServerCredentialsENS_9allocatorIS2_EEEE",
            "__ZTIN4grpc8internal17FinishOnlyReactorINS_18ServerUnaryReactorEEE",
            "__ZTIN4grpc8internal29CancelInterceptorBatchMethodsE",
            "__ZTSN4grpc22CallbackGenericServiceE",
            "__ZTSN4grpc8internal30CallbackServerStreamingHandlerINS_10ByteBufferES2_E24ServerCallbackWriterImplE",
            "__ZTSNSt3__120__shared_ptr_emplaceIN11grpc_binder27TransportStreamReceiverImplENS_9allocatorIS2_EEEE",
            "__ZTSNSt3__110shared_ptrIN4grpc6Server15GlobalCallbacksEE27__shared_ptr_default_deleteIS3_S3_EE",
            "__ZTIN4grpc8internal20AsyncReaderInterfaceINS_10ByteBufferEEE",
            "__ZTIN4grpc20CoreCodegenInterfaceE",
            "__ZTSNSt3__110__function6__baseIFbPN9grpc_core19ChannelStackBuilderEEEE",
            "__ZTSN4grpc8internal20CallbackUnaryHandlerINS_10ByteBufferES2_E23ServerCallbackUnaryImplE",
            "__ZTIN4grpc12experimental28CertificateProviderInterfaceE",
            "__ZTIN4grpc8internal22CallOpServerSendStatusE",
            "__ZTSN4grpc20ServerCallbackWriterINS_10ByteBufferEEE",
            "__ZTSN4grpc8internal19CallbackBidiHandlerINS_10ByteBufferES2_E30ServerCallbackReaderWriterImplE",
            "__ZTIN4grpc19ThreadPoolInterfaceE",
            "__ZTINSt3__120__shared_ptr_emplaceIN11grpc_binder27TransportStreamReceiverImplENS_9allocatorIS2_EEEE",
            "__ZTSNSt3__110__function6__baseIFN9grpc_core6Server24RegisteredCallAllocationEvEEE",
            "__ZTIN4grpc6Server15GlobalCallbacksE",
            "__ZTSN11grpc_binder23TransportStreamReceiverE",
            "__ZTSN4grpc6Server26UnimplementedAsyncResponseE",
            "__ZTSZN4grpc8internal17CallOpSendMessage14SendMessagePtrINS_10ByteBufferEEENS_6StatusEPKT_NS_12WriteOptionsEEUlPKvE_",
            "__ZTINSt3__123enable_shared_from_thisIN4grpc7ChannelEEE",
            "__ZTIN4grpc8internal18ServerCallbackCallE",
            "__ZTSN4grpc18ServerUnaryReactorE",
            "__ZTIN9grpc_core20InternallyRefCountedINS_19SubchannelConnectorELNS_13UnrefBehaviorE0EEE",
            "__ZTSN4grpc8internal8CallNoOpILi6EEE",
            "__ZTIN4grpc8internal13MethodHandlerE",
            "__ZTIN4grpc32ServerAsyncReaderWriterInterfaceINS_10ByteBufferES1_EE",
            "__ZTIZN4grpc8internal17CallOpSendMessage14SendMessagePtrINS_10ByteBufferEEENS_6StatusEPKT_NS_12WriteOptionsEEUlPKvE_",
            "__ZTIN4grpc15ServerInterfaceE",
            "__ZTINSt3__110__function6__baseIFN9grpc_core6Server19BatchCallAllocationEvEEE",
            "__ZTSN4grpc8internal25CallOpSendInitialMetadataE",
            "__ZTSN4grpc8internal8CallHookE",
            "__ZTSNSt3__110__function6__baseIFvbEEE",
            "__ZTSN4grpc8internal29CancelInterceptorBatchMethodsE",
            "__ZTSN4grpc32ServerAsyncReaderWriterInterfaceINS_10ByteBufferES1_EE",
            "__ZTIN4grpc8internal17FinishOnlyReactorINS_18ServerWriteReactorINS_10ByteBufferEEEEE",
            "__ZTIN4grpc12experimental6binder14SecurityPolicyE",
            "__ZTSN4grpc8internal18CompletionQueueTagE",
            "__ZTSNSt3__120__shared_ptr_pointerIPN4grpc7ChannelENS_10shared_ptrIS2_E27__shared_ptr_default_deleteIS2_S2_EENS_9allocatorIS2_EEEE",
            "__ZTINSt3__110__function6__baseIFvPN9grpc_core17CoreConfiguration7BuilderEEEE",
            "__ZTSN9grpc_core7ExecCtxE",
            "__ZTSN4grpc21ServerCompletionQueueE",
            "__ZTSN4grpc8internal17CallOpSendMessageE",
            "__ZTIN4grpc8internal27InterceptorBatchMethodsImplE",
            "__ZTINSt3__110__function6__baseIFvN4absl12lts_202206238StatusOrINS_12basic_stringIcNS_11char_traitsIcEENS_9allocatorIcEEEEEEEEE",
            "__ZTSN4grpc8internal30CallbackServerStreamingHandlerINS_10ByteBufferES2_EE",
            "__ZTSNSt3__110__function6__baseIFvNS_10unique_ptrIN11grpc_binder6BinderENS_14default_deleteIS4_EEEEEEE",
            "__ZTSNSt3__110__function6__baseIFvvEEE",
            "__ZTIN4grpc8internal19CallbackBidiHandlerINS_10ByteBufferES2_E30ServerCallbackReaderWriterImplE",
            "__ZTINSt3__120__shared_ptr_pointerIPN4grpc7ChannelENS_10shared_ptrIS2_E27__shared_ptr_default_deleteIS2_S2_EENS_9allocatorIS2_EEEE",
            "__ZTIN9grpc_core19PolymorphicRefCountE",
            "__ZTIN4grpc8internal20CallbackUnaryHandlerINS_10ByteBufferES2_EE",
            "__ZTIN4grpc13ClientContext15GlobalCallbacksE",
            "__ZTINSt3__110__function6__baseIFbPN9grpc_core19ChannelStackBuilderEEEE",
            "__ZTIN9grpc_core20InternallyRefCountedIN11grpc_binder10WireReaderELNS_13UnrefBehaviorE0EEE",
            "__ZTIN4grpc11AuthContextE",
            "__ZTIN4grpc8internal18ErrorMethodHandlerILNS_10StatusCodeE8EEE",
            "__ZTIN4grpc8internal8CallNoOpILi4EEE",
            "__ZTSNSt3__110__function6__baseIFvN4absl12lts_202206238StatusOrINS_6vectorINS_4pairINS_12basic_stringIcNS_11char_traitsIcEENS_9allocatorIcEEEESC_EENSA_ISD_EEEEEEEEE",
            "__ZTSN4grpc16ChannelInterfaceE",
            "__ZTSN4grpc18ServerWriteReactorINS_10ByteBufferEEE",
            "__ZTSN9grpc_core6Server17ListenerInterfaceE",
            "__ZTSNSt3__110__function6__baseIFvN4absl12lts_202206238StatusOrINS_12basic_stringIcNS_11char_traitsIcEENS_9allocatorIcEEEEEEEEE",
            "__ZTIN4grpc8internal17FinishOnlyReactorINS_17ServerBidiReactorINS_10ByteBufferES3_EEEE",
            "__ZTIN4grpc6Server11SyncRequestE",
            "__ZTIN4grpc19ServerCallbackUnaryE",
            "__ZTINSt3__110__function6__baseIFN4grpc6StatusEPKvEEE",
            "__ZTSN4grpc12experimental26ExternalConnectionAcceptorE",
            "__ZTIN4grpc32MetadataCredentialsPluginWrapperE"
          ]
        },
        "targets": [
          "x86_64-macos"
        ]
      }
    ],
    "flags": [
      {
        "attributes": [
          "not_app_extension_safe"
        ]
      }
    ],
    "install_names": [
      {
        "name": "@rpath/grpcpp.framework/Versions/A/grpcpp"
      }
    ],
    "target_info": [
      {
        "min_deployment": "10.11",
        "target": "x86_64-macos"
      },
      {
        "min_deployment": "11",
        "target": "arm64-macos"
      }
    ]
  },
  "tapi_tbd_version": 5
}
