{
  "main_library": {
    "exported_symbols": [
      {
        "data": {
          "global": [
            "__ZN8firebase9firestore4util4Path4nposE",
            "__ZTIN8firebase9firestore6remote10GrpcStreamE",
            "__ZTSN8firebase9firestore3api25QueryListenerRegistrationE",
            "__ZTSN8firebase9firestore5local18MemoryIndexManagerE",
            "__ZN8firebase9firestore52google_firestore_v1_BatchGetDocumentsResponse_fieldsE",
            "__ZN8firebase9firestore48google_firestore_v1_CreateDocumentRequest_fieldsE",
            "__ZTSN8firebase9firestore5local26LevelDbRemoteDocumentCacheE",
            "__ZTSN8firebase9firestore3api19MemoryCacheSettingsE",
            "__ZTIN8firebase9firestore5local18LocalDocumentsViewE",
            "__ZTSN8firebase9firestore5local20LevelDbMutationQueueE",
            "__ZN8firebase9firestore38google_firestore_admin_v1_Index_fieldsE",
            "__ZN8firebase9firestore41google_firestore_v1_DocumentDelete_fieldsE",
            "__ZTIN8firebase9firestore4core12EventManagerE",
            "__ZN8firebase9firestore29google_protobuf_Struct_fieldsE",
            "__ZTSN8firebase9firestore5local17MemoryTargetCacheE",
            "__ZTSN8firebase9firestore4util19ExecutorLibdispatchE",
            "__ZN8firebase9firestore40google_firestore_v1_CommitRequest_fieldsE",
            "__ZN8firebase9firestore51google_firestore_v1_BatchGetDocumentsRequest_fieldsE",
            "__ZTSN8firebase9firestore5local28MemoryEagerReferenceDelegateE",
            "__ZTVN8firebase9firestore5local11QueryEngineE",
            "__ZN8firebase9firestore32google_protobuf_ListValue_fieldsE",
            "__ZTVN8firebase9firestore4core22ArrayContainsAnyFilter3RepE",
            "__ZN8firebase9firestore6remote37grpc_root_certificates_generated_dataE",
            "__ZTIN8firebase9firestore6remote9DatastoreE",
            "__ZTIN8firebase9firestore11credentials31FirebaseAuthCredentialsProviderE",
            "__ZTSN8firebase9firestore5model13PatchMutation3RepE",
            "__ZN8firebase9firestore58google_firestore_v1_StructuredQuery_CompositeFilter_fieldsE",
            "__ZTSN8firebase9firestore4core22ArrayContainsAnyFilter3RepE",
            "__ZTSN8firebase9firestore6remote16ByteBufferReaderE",
            "__ZTIN8firebase9firestore3api35SnapshotsInSyncListenerRegistrationE",
            "__ZTVN8firebase9firestore5model8Mutation3RepE",
            "__ZN8firebase9firestore53google_firestore_v1_RunAggregationQueryRequest_fieldsE",
            "__ZN8firebase9firestore53google_firestore_v1_StructuredQuery_Projection_fieldsE",
            "__ZTSN8firebase9firestore5local27LevelDbDocumentOverlayCacheE",
            "__ZTIN8firebase9firestore5local18LevelDbBundleCacheE",
            "__ZTSN8firebase9firestore3api21MemoryEagerGcSettingsE",
            "__ZN8firebase9firestore37google_firestore_v1_ArrayValue_fieldsE",
            "__ZN8firebase9firestore53google_firestore_v1_StructuredAggregationQuery_fieldsE",
            "__ZTVN8firebase9firestore11credentials35FirebaseAppCheckCredentialsProviderE",
            "__ZN8firebase9firestore33google_protobuf_Int32Value_fieldsE",
            "__ZTSN8firebase9firestore4core14KeyFieldFilter3RepE",
            "__ZN8firebase9firestore65google_firestore_v1_AggregationResult_AggregateFieldsEntry_fieldsE",
            "__ZN8firebase9firestore49google_firestore_admin_v1_Index_IndexField_fieldsE",
            "__ZTIN8firebase9firestore3api25QueryListenerRegistrationE",
            "__ZTSN8firebase9firestore5local10LocalStoreE",
            "__ZN8firebase9firestore41google_firestore_v1_CommitResponse_fieldsE",
            "__ZTIN8firebase9firestore5local27LevelDbLruReferenceDelegateE",
            "__ZTSN8firebase9firestore11credentials35FirebaseAppCheckCredentialsProviderE",
            "__ZTSN8firebase9firestore6remote9DatastoreE",
            "__ZN8firebase9firestore37firestore_client_MaybeDocument_fieldsE",
            "__ZTVN8firebase9firestore5local26MemoryDocumentOverlayCacheE",
            "__ZN8firebase9firestore38google_firestore_v1_BitSequence_fieldsE",
            "__ZTIN8firebase9firestore4core10SyncEngineE",
            "__ZTSN8firebase9firestore6remote13GrpcUnaryCallE",
            "__ZTSN8firebase9firestore4util4TaskE",
            "__ZN8firebase9firestore9immutable15SortedContainer4nposE",
            "__ZTIN8firebase9firestore4core8InFilter3RepE",
            "__ZTSN8firebase9firestore3api19MemoryLruGcSettingsE",
            "__ZN8firebase9firestore41google_firestore_v1_DocumentRemove_fieldsE",
            "__ZTVN8firebase9firestore6remote29FirebaseMetadataProviderAppleE",
            "__ZTIN8firebase9firestore5model11SetMutation3RepE",
            "__ZTVN8firebase9firestore5model11SetMutation3RepE",
            "__ZTIN8firebase9firestore3api23PersistentCacheSettingsE",
            "__ZN8firebase9firestore28google_protobuf_Empty_fieldsE",
            "__ZN8firebase9firestore42google_firestore_v1_RunQueryRequest_fieldsE",
            "__ZTVN8firebase9firestore5local27LevelDbDocumentOverlayCacheE",
            "__ZTIN8firebase9firestore6remote19GrpcStreamingReaderE",
            "__ZN8firebase9firestore32google_protobuf_Timestamp_fieldsE",
            "__ZTVN8firebase9firestore5local18LevelDbBundleCacheE",
            "__ZN8firebase9firestore32google_protobuf_BoolValue_fieldsE",
            "__ZTIN8firebase9firestore11credentials35FirebaseAppCheckCredentialsProviderE",
            "__ZTVN8firebase9firestore6nanopb12StringReaderE",
            "__ZN8firebase9firestore48google_firestore_v1_StructuredQuery_Order_fieldsE",
            "__ZN8firebase9firestore39google_firestore_v1_DocumentMask_fieldsE",
            "__ZN8firebase9firestore6remote14roots_filenameE",
            "__ZTSN8firebase9firestore11credentials31FirebaseAuthCredentialsProviderE",
            "__ZTVN8firebase9firestore5model14VerifyMutation3RepE",
            "__ZTVN8firebase9firestore4core15CompositeFilter3RepE",
            "__ZTIN8firebase9firestore3api19MemoryCacheSettingsE",
            "__ZN8firebase9firestore69google_firestore_v1_StructuredAggregationQuery_Aggregation_Sum_fieldsE",
            "__ZTSN8firebase9firestore4core15CompositeFilter3RepE",
            "__ZN8firebase9firestore6remote24FirebaseMetadataProvider22kXFirebaseClientHeaderE",
            "__ZTIN8firebase9firestore5local17MemoryPersistenceE",
            "__ZN8firebase9firestore35google_firestore_v1_Document_fieldsE",
            "__ZTVN8firebase9firestore5local20DocumentOverlayCacheE",
            "__ZN8firebase9firestore26google_protobuf_Any_fieldsE",
            "__ZTSN8firebase9firestore4core13QueryListenerE",
            "__ZTIN8firebase9firestore4core22ArrayContainsAnyFilter3RepE",
            "__ZN8firebase9firestore38google_firestore_v1_WriteResult_fieldsE",
            "__ZTIN8firebase9firestore6remote11WatchStreamE",
            "__ZN8firebase9firestore30firestore_client_Target_fieldsE",
            "__ZTVN8firebase9firestore5model13PatchMutation3RepE",
            "__ZN8firebase9firestore33google_protobuf_Int64Value_fieldsE",
            "__ZTVN8firebase9firestore5local17MemoryBundleCacheE",
            "__ZN8firebase9firestore38google_firestore_v1_BloomFilter_fieldsE",
            "__ZN8firebase9firestore52google_firestore_v1_ListenRequest_LabelsEntry_fieldsE",
            "__ZTVN8firebase9firestore6remote10GrpcStreamE",
            "__ZN8firebase9firestore42google_firestore_v1_StructuredQuery_fieldsE",
            "__ZN8firebase9firestore45google_firestore_v1_Target_QueryTarget_fieldsE",
            "__ZN8firebase9firestore28google_protobuf_Value_fieldsE",
            "__ZN8firebase9firestore29firestore_BundledQuery_fieldsE",
            "__ZN8firebase9firestore65google_firestore_v1_StructuredAggregationQuery_Aggregation_fieldsE",
            "__ZN8firebase9firestore6remote37grpc_root_certificates_generated_sizeE",
            "__ZTIN8firebase9firestore5local20LevelDbMutationQueueE",
            "__ZTSN8firebase9firestore3api23PersistentCacheSettingsE",
            "__ZN8firebase9firestore34google_protobuf_UInt64Value_fieldsE",
            "__ZTVN8firebase9firestore5local10LocalStoreE",
            "__ZN8firebase9firestore33google_firestore_v1_Target_fieldsE",
            "__ZTIN8firebase9firestore6remote11WriteStreamE",
            "__ZN8firebase9firestore3api8Settings17DefaultSslEnabledE",
            "__ZN8firebase9firestore37firestore_client_MutationQueue_fieldsE",
            "__ZTVN8firebase9firestore6remote13GrpcUnaryCallE",
            "__ZTVN8firebase9firestore6remote9DatastoreE",
            "__ZTSN8firebase9firestore4util13ByteStreamCppE",
            "__ZN8firebase9firestore3api8Settings21DefaultCacheSizeBytesE",
            "__ZTVN8firebase9firestore4util13ByteStreamCppE",
            "__ZTIN8firebase9firestore6remote6StreamE",
            "__ZN8firebase9firestore59google_firestore_v1_DocumentTransform_FieldTransform_fieldsE",
            "__ZN8firebase9firestore40google_firestore_v1_WriteResponse_fieldsE",
            "_FIRFirestoreVersionString",
            "__ZTSN8firebase9firestore5local19LevelDbIndexManagerE",
            "__ZTIN8firebase9firestore5model14VerifyMutation3RepE",
            "__ZTSN8firebase9firestore5model11SetMutation3RepE",
            "__ZTSN8firebase9firestore6remote10GrpcStreamE",
            "__ZTIN8firebase9firestore4core15CompositeFilter3RepE",
            "__ZN8firebase9firestore54google_firestore_v1_RunAggregationQueryResponse_fieldsE",
            "__ZTVN8firebase9firestore3api35SnapshotsInSyncListenerRegistrationE",
            "__ZN8firebase9firestore39firestore_client_UnknownDocument_fieldsE",
            "__ZTVN8firebase9firestore5local18MemoryIndexManagerE",
            "__ZN8firebase9firestore6remote24FirebaseMetadataProvider29kXFirebaseClientLogTypeHeaderE",
            "__ZN8firebase9firestore40google_firestore_v1_ListenRequest_fieldsE",
            "__ZTVN8firebase9firestore3api19MemoryLruGcSettingsE",
            "__ZTIN8firebase9firestore5local26LevelDbRemoteDocumentCacheE",
            "__ZTIN8firebase9firestore6remote13GrpcUnaryCallE",
            "__ZN8firebase9firestore24google_rpc_Status_fieldsE",
            "__ZTSN8firebase9firestore5local26MemoryLruReferenceDelegateE",
            "__ZTVN8firebase9firestore4core19KeyFieldNotInFilter3RepE",
            "__ZN8firebase9firestore36google_api_ResourceDescriptor_fieldsE",
            "__ZTVN8firebase9firestore5local17MemoryPersistenceE",
            "__ZTSN8firebase9firestore5local26MemoryDocumentOverlayCacheE",
            "__ZTIN8firebase9firestore4core19KeyFieldNotInFilter3RepE",
            "__ZN8firebase9firestore39google_firestore_v1_WriteRequest_fieldsE",
            "__ZTIN8firebase9firestore5local20DocumentOverlayCacheE",
            "__ZN8firebase9firestore49google_firestore_v1_Target_DocumentsTarget_fieldsE",
            "__ZN8firebase9firestore45google_firestore_v1_GetDocumentRequest_fieldsE",
            "__ZTSN8firebase9firestore6remote11WatchStreamE",
            "__ZN8firebase9firestore51google_firestore_v1_BeginTransactionResponse_fieldsE",
            "__ZTIN8firebase9firestore5local10LocalStoreE",
            "__ZTIN8firebase9firestore5local11QueryEngineE",
            "__ZN8firebase9firestore54google_firestore_v1_TransactionOptions_ReadOnly_fieldsE",
            "__ZN8firebase9firestore55google_firestore_v1_TransactionOptions_ReadWrite_fieldsE",
            "__ZTIN8firebase9firestore5model13PatchMutation3RepE",
            "__ZTVN8firebase9firestore5local17MemoryTargetCacheE",
            "__ZTVN8firebase9firestore6remote11WriteStreamE",
            "__ZTVN8firebase9firestore5local26LevelDbRemoteDocumentCacheE",
            "__ZTSN8firebase9firestore4core12EventManagerE",
            "__ZN8firebase9firestore34google_protobuf_StringValue_fieldsE",
            "__ZN8firebase9firestore4core9Direction10DescendingE",
            "__ZTSN8firebase9firestore5model14DeleteMutation3RepE",
            "__ZTVN8firebase9firestore4core10SyncEngineE",
            "__ZTSN8firebase9firestore4core10SyncEngineE",
            "_FirebaseFirestoreInternalVersionString",
            "__ZN8firebase9firestore71google_firestore_v1_StructuredAggregationQuery_Aggregation_Count_fieldsE",
            "__ZN8firebase9firestore61google_firestore_v1_StructuredQuery_CollectionSelector_fieldsE",
            "__ZN8firebase9firestore35google_api_ResourceReference_fieldsE",
            "__ZN8firebase9firestore69google_firestore_v1_StructuredAggregationQuery_Aggregation_Avg_fieldsE",
            "__ZTVN8firebase9firestore5local30LevelDbOverlayMigrationManagerE",
            "__ZTIN8firebase9firestore6remote11RemoteStoreE",
            "__ZN8firebase9firestore33google_firestore_v1_Cursor_fieldsE",
            "__ZTSN8firebase9firestore5local18LocalDocumentsViewE",
            "__ZTVN8firebase9firestore4util4TaskE",
            "__ZTSN8firebase9firestore6remote11RemoteStoreE",
            "__ZN8firebase9firestore4core9Direction9AscendingE",
            "__ZTSN8firebase9firestore3api35SnapshotsInSyncListenerRegistrationE",
            "__ZTVN8firebase9firestore4util15ByteStreamAppleE",
            "__ZTVN8firebase9firestore5model25NumericIncrementTransform3RepE",
            "__ZN8firebase9firestore48google_firestore_v1_UpdateDocumentRequest_fieldsE",
            "__ZN8firebase9firestore40firestore_BundledDocumentMetadata_fieldsE",
            "_FIRFirestoreErrorDomain",
            "__ZTVN8firebase9firestore3api14AggregateQueryE",
            "__ZN8firebase9firestore47google_firestore_v1_ListDocumentsRequest_fieldsE",
            "__ZTVN8firebase9firestore6remote11RemoteStoreE",
            "__ZN8firebase9firestore41google_firestore_v1_ListenResponse_fieldsE",
            "__ZTVN8firebase9firestore6remote19GrpcStreamingReaderE",
            "__ZTIN8firebase9firestore3api21MemoryEagerGcSettingsE",
            "__ZN8firebase9firestore5model9FieldPath16kDocumentKeyPathE",
            "_kFIRFirestoreCacheSizeUnlimited",
            "__ZTIN8firebase9firestore6remote16ByteBufferReaderE",
            "__ZN8firebase9firestore3api30kDefaultTransactionMaxAttemptsE",
            "__ZTIN8firebase9firestore5model14ArrayTransform3RepE",
            "__ZTIN8firebase9firestore5local26MemoryDocumentOverlayCacheE",
            "_FirebaseFirestoreInternalVersionNumber",
            "__ZTVN8firebase9firestore5local20LevelDbMutationQueueE",
            "__ZTIN8firebase9firestore3api14AggregateQueryE",
            "__ZN8firebase9firestore48google_firestore_v1_DeleteDocumentRequest_fieldsE",
            "__ZTSN8firebase9firestore5local10ProtoSizerE",
            "__ZTSN8firebase9firestore5local27LevelDbLruReferenceDelegateE",
            "__ZN8firebase9firestore51google_firestore_v1_ListCollectionIdsRequest_fieldsE",
            "__ZN8firebase9firestore43google_firestore_v1_RunQueryResponse_fieldsE",
            "__ZTSN8firebase9firestore6remote11WriteStreamE",
            "__ZN8firebase9firestore32google_firestore_v1_Value_fieldsE",
            "__ZTVN8firebase9firestore4util19ExecutorLibdispatchE",
            "__ZTVN8firebase9firestore11credentials31FirebaseAuthCredentialsProviderE",
            "__ZN8firebase9firestore39google_firestore_v1_Precondition_fieldsE",
            "__ZN8firebase9firestore44google_firestore_v1_DocumentTransform_fieldsE",
            "__ZTVN8firebase9firestore4core13QueryListenerE",
            "__ZTVN8firebase9firestore6remote16ByteBufferReaderE",
            "__ZN8firebase9firestore6remote24FirebaseMetadataProvider21kXFirebaseGmpIdHeaderE",
            "__ZN8firebase9firestore47google_firestore_v1_Document_FieldsEntry_fieldsE",
            "__ZN8firebase9firestore42google_firestore_v1_ExistenceFilter_fieldsE",
            "__ZTSN8firebase9firestore5model8Mutation3RepE",
            "__ZTIN8firebase9firestore6remote29FirebaseMetadataProviderAppleE",
            "__ZN8firebase9firestore34firestore_client_WriteBatch_fieldsE",
            "__ZTIN8firebase9firestore4util13ByteStreamCppE",
            "__ZTSN8firebase9firestore5local18LevelDbBundleCacheE",
            "__ZTIN8firebase9firestore5local19MemoryMutationQueueE",
            "__ZTSN8firebase9firestore4util10FilesystemE",
            "__ZTIN8firebase9firestore4util4TaskE",
            "__ZN8firebase9firestore34google_protobuf_DoubleValue_fieldsE",
            "__ZTIN8firebase9firestore5local18LevelDbTargetCacheE",
            "__ZN8firebase9firestore34google_protobuf_UInt32Value_fieldsE",
            "__ZN8firebase9firestore44google_firestore_v1_AggregationResult_fieldsE",
            "__ZN8firebase9firestore5model10DatabaseId8kDefaultE",
            "__ZTVN8firebase9firestore5local19MemoryMutationQueueE",
            "__ZTVN8firebase9firestore4util11ExecutorStdE",
            "__ZTSN8firebase9firestore6remote19GrpcStreamingReaderE",
            "__ZTVN8firebase9firestore5local18LevelDbTargetCacheE",
            "__ZTVN8firebase9firestore3api25QueryListenerRegistrationE",
            "__ZN8firebase9firestore3api8Settings21MinimumCacheSizeBytesE",
            "__ZN8firebase9firestore41google_protobuf_Struct_FieldsEntry_fieldsE",
            "__ZN8firebase9firestore54google_firestore_v1_StructuredQuery_FieldFilter_fieldsE",
            "__ZN8firebase9firestore49google_firestore_v1_StructuredQuery_Filter_fieldsE",
            "__ZTVN8firebase9firestore3api23PersistentCacheSettingsE",
            "__ZN8firebase9firestore42google_firestore_v1_RollbackRequest_fieldsE",
            "__ZN8firebase9firestore33google_protobuf_BytesValue_fieldsE",
            "__ZTVN8firebase9firestore3api19MemoryCacheSettingsE",
            "__ZN8firebase9firestore47google_firestore_v1_MapValue_FieldsEntry_fieldsE",
            "__ZTIN8firebase9firestore5model14DeleteMutation3RepE",
            "__ZN8firebase9firestore26google_api_HttpRule_fieldsE",
            "__ZTIN8firebase9firestore5local25MemoryRemoteDocumentCacheE",
            "__ZTVN8firebase9firestore5local18LocalDocumentsViewE",
            "__ZTVN8firebase9firestore4core11NotInFilter3RepE",
            "__ZN8firebase9firestore22google_api_Http_fieldsE",
            "__ZTSN8firebase9firestore5local30LevelDbOverlayMigrationManagerE",
            "__ZN8firebase9firestore36firestore_client_TargetGlobal_fieldsE",
            "__ZTVN8firebase9firestore5local25MemoryRemoteDocumentCacheE",
            "__ZN8firebase9firestore23kFirestoreVersionStringE",
            "__ZN8firebase9firestore35google_firestore_v1_MapValue_fieldsE",
            "__ZTSN8firebase9firestore6nanopb12StringReaderE",
            "__ZTIN8firebase9firestore4core16KeyFieldInFilter3RepE",
            "__ZN8firebase9firestore48google_firestore_v1_ListDocumentsResponse_fieldsE",
            "__ZTVN8firebase9firestore4core19ArrayContainsFilter3RepE",
            "__ZTVN8firebase9firestore4core12EventManagerE",
            "__ZN8firebase9firestore3api8Settings25DefaultPersistenceEnabledE",
            "__ZTIN8firebase9firestore5local18MemoryIndexManagerE",
            "__ZTIN8firebase9firestore6nanopb12StringReaderE",
            "__ZTVN8firebase9firestore4core14KeyFieldFilter3RepE",
            "__ZTVN8firebase9firestore5local28MemoryEagerReferenceDelegateE",
            "__ZN8firebase9firestore41google_firestore_v1_DocumentChange_fieldsE",
            "__ZTVN8firebase9firestore5local27LevelDbLruReferenceDelegateE",
            "__ZTSN8firebase9firestore5model25NumericIncrementTransform3RepE",
            "__ZTIN8firebase9firestore4util15ByteStreamAppleE",
            "__ZTIN8firebase9firestore4core13QueryListenerE",
            "__ZTIN8firebase9firestore5model8Mutation3RepE",
            "__ZTIN8firebase9firestore5local17MemoryBundleCacheE",
            "__ZTIN8firebase9firestore5local28MemoryEagerReferenceDelegateE",
            "__ZTSN8firebase9firestore4core19ArrayContainsFilter3RepE",
            "__ZTVN8firebase9firestore6remote6StreamE",
            "__ZTVN8firebase9firestore4core16KeyFieldInFilter3RepE",
            "__ZN8firebase9firestore31firestore_BundleMetadata_fieldsE",
            "__ZN8firebase9firestore35google_api_CustomHttpPattern_fieldsE",
            "__ZTSN8firebase9firestore6remote6StreamE",
            "__ZTSN8firebase9firestore5local18LevelDbPersistenceE",
            "__ZTSN8firebase9firestore3api14AggregateQueryE",
            "__ZTVN8firebase9firestore5local18LevelDbPersistenceE",
            "__ZN8firebase9firestore32google_firestore_v1_Write_fieldsE",
            "__ZTIN8firebase9firestore5local30LevelDbOverlayMigrationManagerE",
            "__ZTSN8firebase9firestore4core19KeyFieldNotInFilter3RepE",
            "__ZTVN8firebase9firestore4util10FilesystemE",
            "__ZTVN8firebase9firestore5model14DeleteMutation3RepE",
            "__ZTIN8firebase9firestore5model25NumericIncrementTransform3RepE",
            "__ZTIN8firebase9firestore5local17MemoryTargetCacheE",
            "__ZN8firebase9firestore3api8Settings11DefaultHostE",
            "__ZTSN8firebase9firestore4core11NotInFilter3RepE",
            "__ZTVN8firebase9firestore6remote11WatchStreamE",
            "__ZN8firebase9firestore33google_protobuf_FloatValue_fieldsE",
            "__ZTVN8firebase9firestore5local26MemoryLruReferenceDelegateE",
            "__ZTSN8firebase9firestore4core16KeyFieldInFilter3RepE",
            "__ZN8firebase9firestore50google_firestore_v1_BeginTransactionRequest_fieldsE",
            "__ZN8firebase9firestore34firestore_client_NoDocument_fieldsE",
            "__ZN8firebase9firestore25google_type_LatLng_fieldsE",
            "__ZN8firebase9firestore57google_firestore_v1_StructuredQuery_FieldReference_fieldsE",
            "__ZTSN8firebase9firestore5model14ArrayTransform3RepE",
            "__ZN8firebase9firestore54google_firestore_v1_StructuredQuery_UnaryFilter_fieldsE",
            "__ZTVN8firebase9firestore5local19LevelDbIndexManagerE",
            "__ZTVN8firebase9firestore4core8InFilter3RepE",
            "__ZTIN8firebase9firestore5local27LevelDbDocumentOverlayCacheE",
            "__ZTSN8firebase9firestore4core11FieldFilter3RepE",
            "__ZTIN8firebase9firestore4util10FilesystemE",
            "__ZTIN8firebase9firestore5local26MemoryLruReferenceDelegateE",
            "__ZTIN8firebase9firestore5local18LevelDbPersistenceE",
            "__ZTSN8firebase9firestore6remote29FirebaseMetadataProviderAppleE",
            "__ZTIN8firebase9firestore4util19ExecutorLibdispatchE",
            "__ZN8firebase9firestore39google_firestore_v1_TargetChange_fieldsE",
            "__ZN8firebase9firestore52google_firestore_v1_ListCollectionIdsResponse_fieldsE",
            "__ZTVN8firebase9firestore3api21MemoryEagerGcSettingsE",
            "__ZN8firebase9firestore9immutable13SortedMapBase10kFixedSizeE",
            "__ZTSN8firebase9firestore5local25MemoryRemoteDocumentCacheE",
            "__ZTIN8firebase9firestore5local10ProtoSizerE",
            "__ZTSN8firebase9firestore5local17MemoryPersistenceE",
            "__ZTIN8firebase9firestore5local19LevelDbIndexManagerE",
            "__ZTSN8firebase9firestore5local18LevelDbTargetCacheE",
            "__ZTVN8firebase9firestore5model14ArrayTransform3RepE",
            "__ZTSN8firebase9firestore5model14VerifyMutation3RepE",
            "__ZTIN8firebase9firestore4core11FieldFilter3RepE",
            "__ZTVN8firebase9firestore5local10ProtoSizerE",
            "__ZTIN8firebase9firestore4core11NotInFilter3RepE",
            "__ZTIN8firebase9firestore3api19MemoryLruGcSettingsE",
            "__ZN8firebase9firestore27firestore_NamedQuery_fieldsE",
            "__ZTIN8firebase9firestore4core14KeyFieldFilter3RepE",
            "__ZN8firebase9firestore45google_firestore_v1_TransactionOptions_fieldsE",
            "__ZTSN8firebase9firestore5local19MemoryMutationQueueE",
            "__ZN8firebase9firestore5local28kListenSequenceNumberInvalidE",
            "__ZTSN8firebase9firestore5local11QueryEngineE",
            "__ZTSN8firebase9firestore4core8InFilter3RepE",
            "__ZTSN8firebase9firestore4util15ByteStreamAppleE",
            "__ZN8firebase9firestore30firestore_BundleElement_fieldsE",
            "__ZTIN8firebase9firestore4util11ExecutorStdE",
            "__ZN8firebase9firestore51google_firestore_v1_WriteRequest_LabelsEntry_fieldsE",
            "__ZTSN8firebase9firestore4util11ExecutorStdE",
            "__ZTVN8firebase9firestore4core11FieldFilter3RepE",
            "__ZTSN8firebase9firestore5local17MemoryBundleCacheE",
            "__ZTSN8firebase9firestore5local20DocumentOverlayCacheE",
            "__ZTIN8firebase9firestore4core19ArrayContainsFilter3RepE"
          ],
          "objc_class": [
            "FIRDocumentReference",
            "FSTCompositeFilter",
            "FIRMemoryLRUGCSettings",
            "FIRFirestoreSettings",
            "FSTDeleteFieldValue",
            "FIRDocumentChange",
            "FIRAggregateQuerySnapshot",
            "PodsDummy_FirebaseFirestoreInternal",
            "FIRMemoryCacheSettings",
            "FSTSumAggregateField",
            "FIRQuerySnapshot",
            "FIRDocumentSnapshot",
            "FSTUnaryFilter",
            "FSTServerTimestampFieldValue",
            "FIRFirestore",
            "FIRFilter",
            "FIRQuery",
            "FSTNumericIncrementFieldValue",
            "FIRFieldValue",
            "FIRPersistentCacheIndexManager",
            "FIRTransactionOptions",
            "FIRTimestamp",
            "FIRCollectionReference",
            "FSTAverageAggregateField",
            "FIRPersistentCacheSettings",
            "FIRTransaction",
            "FSTArrayRemoveFieldValue",
            "FSTUserDataWriter",
            "FIRQueryDocumentSnapshot",
            "FIRAggregateQuery",
            "FSTListenerRegistration",
            "FSTUserDataReader",
            "FIRWriteBatch",
            "FIRLoadBundleTaskProgress",
            "FSTCountAggregateField",
            "FIRGeoPoint",
            "FIRLoadBundleTask",
            "FIRFieldPath",
            "FIRAggregateField",
            "FSTDocumentKeyReference",
            "FIRMemoryEagerGCSettings",
            "FSTArrayUnionFieldValue",
            "FSTFirestoreComponent",
            "FIRSnapshotMetadata"
          ]
        },
        "text": {
          "global": [
            "__ZN8firebase9firestore6nanopb11PrintHeaderEiN4absl12lts_2022062311string_viewEPKv",
            "__ZNK8firebase9firestore39_google_firestore_v1_GetDocumentRequest8ToStringEi",
            "__ZNK8firebase9firestore6remote19DatastoreSerializer28DecodeAggregateQueryResponseERKN4grpc10ByteBufferERKN4absl12lts_2022062313flat_hash_mapINSt3__112basic_stringIcNSA_11char_traitsIcEENSA_9allocatorIcEEEESG_NS8_18container_internal10StringHashENSH_8StringEqENSE_INSA_4pairIKSG_SG_EEEEEE",
            "__ZN8firebase9firestore5model12Precondition10UpdateTimeENS1_15SnapshotVersionE",
            "__ZN8firebase9firestore3api24MakeFIRDocumentReferenceERKNS0_5model11DocumentKeyENSt3__110shared_ptrINS1_9FirestoreEEE",
            "__ZN8firebase9firestore4util13ByteStreamCpp9ReadUntilEcm",
            "__ZNK8firebase9firestore4core7OrderBy7CompareERKNS0_5model8DocumentES6_",
            "__ZNK8firebase9firestore4core18DocumentViewChange4HashEv",
            "__ZN8firebase9firestore4core11FieldFilter6CreateERKNS0_5model9FieldPathENS2_8OperatorENS0_6nanopb13SharedMessageINS0_26_google_firestore_v1_ValueEEE",
            "__ZN8firebase9firestore3api19MemoryCacheSettingsC1ERKS2_",
            "__ZN8firebase9firestore4core11Transaction13RecordVersionERKNS0_5model8DocumentE",
            "__ZN8firebase9firestore5local17MemoryPersistence26GetOverlayMigrationManagerERKNS0_11credentials4UserE",
            "__ZN8firebase9firestore11credentials9AuthToken15UnauthenticatedEv",
            "__ZNK8firebase9firestore5local15LocalSerializer12DecodeBundleEPNS0_6nanopb6ReaderERKNS0_25_firestore_BundleMetadataE",
            "__ZN8firebase9firestore6nanopb10ByteStringC2EN4absl12lts_2022062311string_viewE",
            "__ZNK8firebase9firestore5model14DeleteMutation3Rep8ToStringEv",
            "__ZN8firebase9firestore5modellsERNSt3__113basic_ostreamIcNS2_11char_traitsIcEEEERKNS1_7OverlayE",
            "__ZNK8firebase9firestore5model9FieldMask6coversERKNS1_9FieldPathE",
            "__ZN8firebase9Timestamp9FromTimeTEl",
            "__ZNK8firebase9firestore6remote10Serializer17DecodeFieldFilterEPNS0_4util11ReadContextERNS0_48_google_firestore_v1_StructuredQuery_FieldFilterE",
            "__ZN8firebase9firestore5model13PatchMutationC1ENS1_11DocumentKeyENS1_11ObjectValueENS1_9FieldMaskENS1_12PreconditionE",
            "__ZN8firebase9firestore5model25NumericIncrementTransformC1ENS0_6nanopb7MessageINS0_26_google_firestore_v1_ValueEEE",
            "__ZN8firebase9firestore4core15FirestoreClient6CreateERKNS1_12DatabaseInfoERKNS0_3api8SettingsENSt3__110shared_ptrINS0_11credentials19CredentialsProviderINSC_9AuthTokenENSC_4UserEEEEENSB_INSD_INSA_12basic_stringIcNSA_11char_traitsIcEENSA_9allocatorIcEEEESN_EEEENSB_INS0_4util8ExecutorEEENSB_INSQ_10AsyncQueueEEENSA_10unique_ptrINS0_6remote24FirebaseMetadataProviderENSA_14default_deleteISX_EEEE",
            "__ZN8firebase9firestore5local18LevelDbTargetCache9AddTargetERKNS1_10TargetDataE",
            "__ZN8firebase9firestore5local11QueryEngine27SetIndexAutoCreationEnabledEb",
            "__ZNK8firebase9firestore5model11DocumentSet7IndexOfERKNS1_11DocumentKeyE",
            "__ZN8firebase9firestore5model12Precondition4NoneEv",
            "__ZN8firebase9firestore5model9DeepCloneERKNS0_31_google_firestore_v1_ArrayValueE",
            "__ZN8firebase9firestore5local40LevelDbDocumentOverlayCollectionIndexKey9KeyPrefixEN4absl12lts_2022062311string_viewERKNS0_5model12ResourcePathEi",
            "__ZN8firebase9firestore5model9FieldPath26FromDotSeparatedStringViewEN4absl12lts_2022062311string_viewE",
            "__ZN8firebase9firestore4core12EventManager23HandleOnlineStateChangeENS0_5model11OnlineStateE",
            "__ZN8firebase9firestore5local17MemoryPersistence12bundle_cacheEv",
            "__ZN8firebase9firestore5local20LevelDbMutationQueue14MetadataForKeyERKNSt3__112basic_stringIcNS3_11char_traitsIcEENS3_9allocatorIcEEEE",
            "__ZN8firebase9firestore4corelsERNSt3__113basic_ostreamIcNS2_11char_traitsIcEEEERKNS1_6TargetE",
            "__ZN8firebase9firestore5modeleqERKNS1_7OverlayES4_",
            "__ZNK8firebase9firestore3api5Query4HashEv",
            "__ZNK8firebase9firestore4core6Target14GetArrayValuesERKNS0_5model10FieldIndexE",
            "__ZNK8firebase9firestore4core11FieldFilter3Rep8ToStringEv",
            "__ZN8firebase9firestore4core11Transaction14WriteMutationsEONSt3__16vectorINS0_5model8MutationENS3_9allocatorIS6_EEEE",
            "__ZN8firebase9firestore3apieqERKNS1_13QuerySnapshotES4_",
            "__ZN8firebase9firestore4core10SyncEngine32InitializeViewAndComputeSnapshotERKNS1_5QueryEiNS0_6nanopb10ByteStringE",
            "__ZN8firebase9firestore4core19ViewDocumentChangesC1ENS0_5model11DocumentSetENS1_21DocumentViewChangeSetENS0_9immutable9SortedSetINS3_11DocumentKeyENS0_4util10ComparatorIS8_EEEEb",
            "__ZN8firebase9firestore6remote10GrpcStreamD2Ev",
            "__ZN8firebase9firestore6remote10GrpcStream5WriteEON4grpc10ByteBufferE",
            "__ZN8firebase9firestore5local19LevelDbIndexManager16DeleteIndexEntryERKNS0_5model8DocumentERKNS3_10FieldIndexERKNS0_5index10IndexEntryE",
            "__ZNK8firebase9firestore5local28MemoryEagerReferenceDelegate12IsReferencedERKNS0_5model11DocumentKeyE",
            "__ZNK8firebase9firestore4core6Target13GetLowerBoundERKNS0_5model10FieldIndexE",
            "__ZN8firebase9firestore5local16LevelDbBundleKey9KeyPrefixEv",
            "__ZN8firebase9firestore5local20LevelDbMutationQueue19RemoveMutationBatchERKNS0_5model13MutationBatchE",
            "__ZNK8firebase9firestore6remote10Serializer19IsLocalResourceNameERKNS0_5model12ResourcePathE",
            "__ZN8firebase9firestore4util11OrderedCode11WriteStringEPNSt3__112basic_stringIcNS3_11char_traitsIcEENS3_9allocatorIcEEEEN4absl12lts_2022062311string_viewE",
            "__ZNK8firebase9firestore4core21DocumentViewChangeSet8ToStringEv",
            "__ZN8firebase9firestore5local18LevelDbPersistence15EnsureDirectoryERKNS0_4util4PathE",
            "__ZNK8firebase9firestore5local15IndexBackfiller12GetNewOffsetERKNS0_5model11IndexOffsetERKNS1_16LocalWriteResultE",
            "__ZN8firebase9firestore5local23LevelDbMutationQueueKey9KeyPrefixEv",
            "__ZN8firebase9firestore5local28LevelDbIndexConfigurationKey6DecodeEN4absl12lts_2022062311string_viewE",
            "__ZN8firebase9firestore5local18MemoryIndexManager18UpdateIndexEntriesERKNS0_9immutable9SortedMapINS0_5model11DocumentKeyENS5_8DocumentENS0_4util10ComparatorIS6_EEEE",
            "__ZNK8firebase9firestore5local10TargetData15WithResumeTokenENS0_6nanopb10ByteStringENS0_5model15SnapshotVersionE",
            "__ZNK8firebase9firestore5local15LocalSerializer13EncodeVersionERKNS0_5model15SnapshotVersionE",
            "__ZNK8firebase9firestore5model9FieldPath14IsKeyFieldPathEv",
            "__ZNK8firebase9firestore5model25NumericIncrementTransform3Rep15OperandAsDoubleEv",
            "__ZN8firebase9firestore4core17TransactionRunner14ContinueCommitERKNSt3__110shared_ptrINS1_11TransactionEEENS0_4util6StatusE",
            "__ZNK8firebase9firestore4core7OrderBy11CanonicalIdEv",
            "__ZN8firebase9firestore6remote21WatchChangeAggregator24RemoveDocumentFromTargetEiRKNS0_5model11DocumentKeyERKN4absl12lts_202206238optionalINS3_15MutableDocumentEEE",
            "__ZN8firebase9firestore4core10SyncEngine27UpdateTrackedLimboDocumentsERKNSt3__16vectorINS1_19LimboDocumentChangeENS3_9allocatorIS5_EEEEi",
            "__ZN8firebase9firestore3api16DocumentSnapshot12FromDocumentENSt3__110shared_ptrINS1_9FirestoreEEENS0_5model8DocumentENS1_16SnapshotMetadataE",
            "__ZN8firebase9firestore4util10LogicUtils16ApplyAssociationERKNS0_4core6FilterE",
            "__ZNK8firebase9firestore26_google_protobuf_ListValue8ToStringEi",
            "__ZNK8firebase9firestore5model8Mutation3Rep25ExtractTransformBaseValueERKNS1_8DocumentE",
            "__ZN8firebase9firestore5model13PatchMutation3RepC1EONS1_11DocumentKeyEONS1_11ObjectValueEONS1_9FieldMaskEONS1_12PreconditionEONSt3__16vectorINS1_14FieldTransformENSC_9allocatorISE_EEEE",
            "__ZN8firebase9firestore4util11ExecutorStd12OnCompletionEPNS1_4TaskE",
            "__ZN8firebase9firestore4util10Filesystem17RecursivelyRemoveERKNS1_4PathE",
            "__ZNK8firebase9firestore3api16DocumentSnapshot4HashEv",
            "__ZN8firebase9firestore4core11Transaction6LookupERKNSt3__16vectorINS0_5model11DocumentKeyENS3_9allocatorIS6_EEEEONS3_8functionIFvRKNS0_4util8StatusOrINS4_INS5_8DocumentENS7_ISF_EEEEEEEEE",
            "__ZN8firebase9firestore4util4Path24MutableAppendUtf8SegmentEN4absl12lts_2022062311string_viewE",
            "__ZNK8firebase9firestore5model14FieldTransform8ToStringEv",
            "__ZN8firebase9firestore5local44LevelDbDocumentOverlayLargestBatchIdIndexKey9KeyPrefixEN4absl12lts_2022062311string_viewEi",
            "__ZNK8firebase9firestore6remote10Serializer20DecodeMutationResultEPNS0_4util11ReadContextERNS0_32_google_firestore_v1_WriteResultERKNS0_5model15SnapshotVersionE",
            "__ZNK8firebase9firestore6remote21WatchChangeAggregator14IsActiveTargetEi",
            "__ZNK8firebase9firestore27_google_protobuf_Int64Value8ToStringEi",
            "__ZN8firebase9firestore5model11ObjectValue12FromMapValueENS0_6nanopb7MessageINS0_29_google_firestore_v1_MapValueEEE",
            "__ZN8firebase9firestore5local25LevelDbDocumentOverlayKey9KeyPrefixEN4absl12lts_2022062311string_viewE",
            "__ZN8firebase9firestore6nanopb10ByteStringC1EPKvm",
            "__ZN8firebase9firestore6nanopb16ByteStringWriter7ReserveEm",
            "__ZN8firebase9firestore4core12ViewSnapshotC2ENS1_5QueryENS0_5model11DocumentSetES5_NSt3__16vectorINS1_18DocumentViewChangeENS6_9allocatorIS8_EEEENS0_9immutable9SortedSetINS4_11DocumentKeyENS0_4util10ComparatorISE_EEEEbbbb",
            "__ZN8firebase9firestore12EnumToStringENS0_49_google_firestore_admin_v1_Index_IndexField_OrderE",
            "__ZN8firebase9firestore5local18LevelDbPersistence16ClearPersistenceERKNS0_4core12DatabaseInfoE",
            "__ZN8firebase9firestore4util10LogicUtils17ApplyDistributionEONS0_4core11FieldFilterES5_",
            "__ZNK8firebase9firestore3api19CollectionReference6parentEv",
            "__ZN8firebase9firestore4util4Task5AwaitEv",
            "__ZNK8firebase9firestore46_google_firestore_v1_ListCollectionIdsResponse8ToStringEi",
            "__ZNK8firebase9firestore4util6Status9ToNSErrorEv",
            "__ZN8firebase9firestore5local27LevelDbDocumentOverlayCache13DeleteOverlayERKNS0_5model11DocumentKeyE",
            "__ZNK8firebase9firestore6remote10Serializer18DecodeTargetChangeEPNS0_4util11ReadContextERKNS0_33_google_firestore_v1_TargetChangeE",
            "__ZN8firebase9firestore4util15ByteStreamApple11ErrorResultEv",
            "__ZNK8firebase9firestore4core6Target4HashEv",
            "__ZN8firebase9firestore5local18LocalDocumentsView12GetDocumentsERKNS0_9immutable9SortedSetINS0_5model11DocumentKeyENS0_4util10ComparatorIS6_EEEE",
            "__ZN8firebase9firestore5local26MemoryLruReferenceDelegate26EnumerateOrphanedDocumentsERKNSt3__18functionIFvRKNS0_5model11DocumentKeyExEEE",
            "__ZNK8firebase9firestore6bundle16BundleSerializer10DecodeNameERNS0_4util10JsonReaderERKN8nlohmann10basic_jsonINSt3__13mapENS8_6vectorENS8_12basic_stringIcNS8_11char_traitsIcEENS8_9allocatorIcEEEEbxydSE_NS6_14adl_serializerENSA_IhNSE_IhEEEEEE",
            "__ZN8firebase9firestore4util10LogMessageENS1_8LogLevelERKNSt3__112basic_stringIcNS3_11char_traitsIcEENS3_9allocatorIcEEEE",
            "__ZN8firebase9firestore4util8StrErrorEi",
            "__ZN8firebase9firestore4coreeqERKNS1_12ViewSnapshotES4_",
            "__ZN8firebase9firestore3api9Firestore20WaitForPendingWritesENSt3__18functionIFvNS0_4util6StatusEEEE",
            "__ZNK8firebase9firestore6remote10Serializer25DecodeFieldFilterOperatorEPNS0_4util11ReadContextENS0_57_google_firestore_v1_StructuredQuery_FieldFilter_OperatorE",
            "__ZNK8firebase9firestore5model9FieldMask8ToStringEv",
            "__ZN8firebase9firestore4util10JsonReader12DecodeDoubleERKN8nlohmann10basic_jsonINSt3__13mapENS5_6vectorENS5_12basic_stringIcNS5_11char_traitsIcEENS5_9allocatorIcEEEEbxydSB_NS3_14adl_serializerENS7_IhNSB_IhEEEEEE",
            "__ZN8firebase9firestore5local25MemoryRemoteDocumentCache6RemoveERKNS0_5model11DocumentKeyE",
            "__ZN8firebase9firestore4util13ByteStreamCpp4ReadEm",
            "__ZNK8firebase9firestore6remote10Serializer18EncodeDatabaseNameEv",
            "__ZN8firebase9firestore5local18LevelDbTargetCache12ReadMetadataEPN7leveldb2DBE",
            "__ZNK8firebase9firestore3api27PersistentCacheIndexManager24DisableIndexAutoCreationEv",
            "__ZN8firebase9firestore5local13LevelDbOpenerC1ENS0_4core12DatabaseInfoEPNS0_4util10FilesystemE",
            "__ZN8firebase9firestore4util11ExecutorStdD2Ev",
            "__ZN8firebase9firestore5local26MemoryLruReferenceDelegate20OnTransactionStartedEN4absl12lts_2022062311string_viewE",
            "__ZN8firebase9firestore4core12ParseContext14AddToFieldMaskENS0_5model9FieldPathE",
            "__ZNK8firebase9firestore5model11ObjectValue3GetERKNSt3__112basic_stringIcNS3_11char_traitsIcEENS3_9allocatorIcEEEE",
            "__ZN8firebase9firestore6remote14GrpcConnection27RegisterConnectivityMonitorEv",
            "__ZN8firebase9firestore4util10LogicUtils17ApplyDistributionEONS0_4core15CompositeFilterES5_",
            "__ZN8firebase9firestore6remote9Datastore32RunAggregateQueryWithCredentialsERKNS0_11credentials9AuthTokenERKNSt3__112basic_stringIcNS7_11char_traitsIcEENS7_9allocatorIcEEEERKNS0_4core5QueryERKNS7_6vectorINS0_5model14AggregateFieldENSB_ISM_EEEEONS7_8functionIFvRKNS0_4util8StatusOrINSL_11ObjectValueEEEEEE",
            "__ZN8firebase9firestore4util19ExecutorLibdispatch10InvokeSyncEPv",
            "__ZN8firebase17TimestampInternal17FromUntrustedTimeEN4absl12lts_202206234TimeE",
            "__ZN8firebase9firestore5local18LevelDbPersistence6OpenDbERKNS0_4util4PathE",
            "__ZN8firebase9firestore6remote10GrpcStream14FinishGrpcCallERKNSt3__18functionIFvRKNS3_10shared_ptrINS1_14GrpcCompletionEEEEEE",
            "__ZN8firebase9firestore5model14FieldTransformC1ENS1_9FieldPathENS1_18TransformOperationE",
            "__ZNK8firebase9firestore24_firestore_BundleElement8ToStringEi",
            "__ZN8firebase9firestore5local26LevelDbRemoteDocumentCacheC2EPNS1_18LevelDbPersistenceEPNS1_15LocalSerializerE",
            "__ZN8firebase9firestore5local18MemoryIndexManager19CreateTargetIndexesERKNS0_4core6TargetE",
            "__ZN8firebase9firestore5local20LevelDbIndexStateKey6DecodeEN4absl12lts_2022062311string_viewE",
            "__ZNK8firebase9firestore5model11ObjectValue8ToStringEv",
            "__ZNK8firebase9firestore5model13MutationBatch8ToStringEv",
            "__ZN8firebase9firestore6nanopb10ByteStringC2EPK16pb_bytes_array_s",
            "__ZN8firebase9firestore6remote13GrpcUnaryCall17FinishImmediatelyEv",
            "__ZN8firebase9firestore4util10JsonReader14OptionalObjectEPKcRKN8nlohmann10basic_jsonINSt3__13mapENS7_6vectorENS7_12basic_stringIcNS7_11char_traitsIcEENS7_9allocatorIcEEEEbxydSD_NS5_14adl_serializerENS9_IhNSD_IhEEEEEESL_",
            "__ZN8firebase9firestore4core11Transaction21MarkPermanentlyFailedEv",
            "__ZN8firebase9firestore4util10Filesystem11IsDirectoryERKNS1_4PathE",
            "__ZN8firebase9firestore5model13GetLowerBoundEj",
            "__ZN8firebase9firestore4util10LogicUtils17ApplyDistributionEONS0_4core11FieldFilterEONS3_15CompositeFilterE",
            "__ZN8firebase9firestore5model8Mutation3Rep22GetPostMutationVersionERKNS1_15MutableDocumentE",
            "__ZNK8firebase9firestore4util19ExecutorLibdispatch13IsIdScheduledEj",
            "__ZN8firebase9firestore3api9Firestore10LoadBundleENSt3__110unique_ptrINS0_4util10ByteStreamENS3_14default_deleteIS6_EEEE",
            "__ZN8firebase9firestore4util11OrderedCode13WriteInfinityEPNSt3__112basic_stringIcNS3_11char_traitsIcEENS3_9allocatorIcEEEE",
            "__ZN8firebase9firestore5local25LevelDbDocumentOverlayKey9KeyPrefixEN4absl12lts_2022062311string_viewERKNS0_5model11DocumentKeyE",
            "__ZN8firebase9firestore5model10FieldIndex15SemanticCompareERKS2_S4_",
            "__ZN8firebase9firestore5model13PatchMutationC1ERKNS1_8MutationE",
            "__ZN8firebase9firestore4core15CompositeFilter3RepC1EONSt3__16vectorINS1_6FilterENS4_9allocatorIS6_EEEENS2_8OperatorE",
            "__ZN8firebase9firestore3api35SnapshotsInSyncListenerRegistrationC1ENSt3__110shared_ptrINS0_4core15FirestoreClientEEENS4_INS5_18AsyncEventListenerINS0_4util5EmptyEEEEE",
            "__ZNK8firebase9firestore4core13QueryListener23ShouldRaiseInitialEventERKNS1_12ViewSnapshotENS0_5model11OnlineStateE",
            "__ZN8firebase9firestore5local16LevelDbTargetKey3KeyEi",
            "__ZN8firebase9firestore6remote19GrpcStreamingReader5StartEmONSt3__18functionIFvNS3_6vectorIN4grpc10ByteBufferENS3_9allocatorIS7_EEEEEEEONS4_IFvRKNS0_4util6StatusEbEEE",
            "__ZN8firebase9firestore5model14DeleteMutationC1ERKNS1_8MutationE",
            "__ZN8firebase9firestore4core10SyncEngine23HandleOnlineStateChangeENS0_5model11OnlineStateE",
            "__ZN8firebase9firestore5local27LevelDbLruReferenceDelegate13WriteSentinelERKNS0_5model11DocumentKeyE",
            "__ZN8firebase9firestore5local28MemoryEagerReferenceDelegate19UpdateLimboDocumentERKNS0_5model11DocumentKeyE",
            "__ZN8firebase9firestore5model15MutableDocument24SetHasCommittedMutationsEv",
            "__ZN8firebase9firestore5model9FieldPath9EmptyPathEv",
            "__ZN8firebase9firestore4core10SyncEngine10LoadBundleENSt3__110shared_ptrINS0_6bundle12BundleReaderEEENS4_INS0_3api14LoadBundleTaskEEE",
            "__ZN8firebase9firestore4core22ArrayContainsAnyFilterC1ERKNS0_5model9FieldPathENS0_6nanopb13SharedMessageINS0_26_google_firestore_v1_ValueEEE",
            "__ZN8firebase9firestore5local19LevelDbIndexManagerC2ERKNS0_11credentials4UserEPNS1_18LevelDbPersistenceEPNS1_15LocalSerializerE",
            "__ZN8firebase9firestore5local10TargetDataC2ENS0_4core6TargetEixNS1_12QueryPurposeE",
            "__ZN8firebase9firestore5local45LevelDbDocumentOverlayCollectionGroupIndexKey9KeyPrefixEN4absl12lts_2022062311string_viewE",
            "__ZN8firebase9firestore4corelsERNSt3__113basic_ostreamIcNS2_11char_traitsIcEEEERKNS1_12ViewSnapshotE",
            "__ZN8firebase9firestore3apieqERKNS1_16DocumentSnapshotES4_",
            "__ZN8firebase9firestore6remoteeqERKNS1_12TargetChangeES4_",
            "__ZN8firebase9firestore5local12ReferenceSet14ReferencedKeysEi",
            "__ZNK8firebase9firestore59_google_firestore_v1_StructuredAggregationQuery_Aggregation8ToStringEi",
            "__ZN8firebase9firestore5model11IndexOffset15DocumentCompareERKNS1_8DocumentES5_",
            "__ZNK8firebase9firestore6remote10Serializer24EncodeUnaryOrFieldFilterERKNS0_4core11FieldFilterE",
            "__ZNK8firebase9firestore5local10ProtoSizer17CalculateByteSizeERKNS0_5model15MutableDocumentE",
            "__ZN8firebase9firestore5local26LevelDbCollectionParentKey9KeyPrefixEN4absl12lts_2022062311string_viewE",
            "__ZN8firebase9firestore6remote11RemoteStore16StartWatchStreamEv",
            "__ZN8firebase9firestore6remote14GrpcConnection10UnregisterEPNS1_8GrpcCallE",
            "__ZNK8firebase9firestore6bundle16BundleSerializer17DecodeBoundFieldsERNS0_4util10JsonReaderERKN8nlohmann10basic_jsonINSt3__13mapENS8_6vectorENS8_12basic_stringIcNS8_11char_traitsIcEENS8_9allocatorIcEEEEbxydSE_NS6_14adl_serializerENSA_IhNSE_IhEEEEEE",
            "__ZN8firebase9firestore5local20LevelDbIndexStateKey3KeyEN4absl12lts_2022062311string_viewEi",
            "__ZN8firebase9firestore5local18LevelDbTargetCache5StartEv",
            "__ZN8firebase9firestore5model11DocumentKeyC1Ev",
            "__ZNK8firebase9firestore5model15SnapshotVersion8ToStringEv",
            "__ZN8firebase9firestore4util19ExecutorLibdispatch12NextIdLockedEv",
            "__ZN8firebase9firestore4util4Task6CancelEv",
            "__ZNK8firebase9firestore29_google_api_ResourceReference8ToStringEi",
            "__ZN8firebase9firestore6remote21WatchChangeAggregator16ParseBloomFilterERKNS1_26ExistenceFilterWatchChangeE",
            "__ZNK8firebase9firestore6bundle16BundleSerializer16DecodeNamedQueryERNS0_4util10JsonReaderERKN8nlohmann10basic_jsonINSt3__13mapENS8_6vectorENS8_12basic_stringIcNS8_11char_traitsIcEENS8_9allocatorIcEEEEbxydSE_NS6_14adl_serializerENSA_IhNSE_IhEEEEEE",
            "__ZN8firebase9firestore3apineERKNS1_18LocalCacheSettingsES4_",
            "__ZN8firebase9firestore5modellsERNSt3__113basic_ostreamIcNS2_11char_traitsIcEEEENS1_15MutableDocument12DocumentTypeE",
            "__ZN8firebase9firestore4util10Filesystem18ExcludeFromBackupsERKNS1_4PathE",
            "__ZNK8firebase9firestore5local19LevelDbIndexManager12GetMinOffsetERKNSt3__16vectorINS0_5model10FieldIndexENS3_9allocatorIS6_EEEE",
            "__ZN8firebase9firestore5local11DescribeKeyEN4absl12lts_2022062311string_viewE",
            "__ZN8firebase9firestore4core13QueryListener17RaiseInitialEventERKNS1_12ViewSnapshotE",
            "__ZN8firebase9firestore5local24LevelDbDocumentTargetKey19EncodeSentinelValueEx",
            "__ZN8firebase9firestore4util10AsyncQueue7EnqueueERKNSt3__18functionIFvvEEE",
            "__ZN8firebase9firestore5local25LevelDbDocumentOverlayKey6DecodeEN4absl12lts_2022062311string_viewE",
            "__ZN8firebase9firestore5model18TransformOperationC2ENSt3__110shared_ptrIKNS2_3RepEEE",
            "__ZN8firebase9firestore5local27LevelDbLruReferenceDelegate23RemoveMutationReferenceERKNS0_5model11DocumentKeyE",
            "__ZN8firebase9firestore3apieqERKNS1_19MemoryLruGcSettingsES4_",
            "__ZN8firebase9firestore6remote19DatastoreSerializerC1ERKNS0_4core12DatabaseInfoE",
            "__ZN8firebase9firestore5local23LevelDbMutationQueueKey6DecodeEN4absl12lts_2022062311string_viewE",
            "__ZN8firebase9firestore4coreeqERKNS1_18DocumentViewChangeES4_",
            "__ZN8firebase9firestore4util11ExecutorStdD1Ev",
            "__ZN8firebase9firestore3api16DocumentSnapshot14FromNoDocumentENSt3__110shared_ptrINS1_9FirestoreEEENS0_5model11DocumentKeyENS1_16SnapshotMetadataE",
            "__ZN8firebase9firestore5local10LocalStore21GetRemoteDocumentKeysEi",
            "__ZN8firebase9firestore5modellsERNSt3__113basic_ostreamIcNS2_11char_traitsIcEEEERKNS1_19MutationBatchResultE",
            "__ZN8firebase9firestore6nanopb12StringReaderC2ERKNS1_10ByteStringE",
            "__ZN8firebase9firestore4util10AsyncQueue27RunScheduledOperationsUntilENS1_7TimerIdE",
            "__ZN8firebase9firestore4util15ByteStreamApple9ReadUntilEcm",
            "__ZNK8firebase9firestore33_google_firestore_v1_Precondition8ToStringEi",
            "__ZNK8firebase9firestore35_google_firestore_v1_DocumentDelete8ToStringEi",
            "__ZN8firebase9firestore5local27LevelDbLruReferenceDelegate20OnTransactionStartedEN4absl12lts_2022062311string_viewE",
            "__ZN8firebase9firestore5local20LevelDbNamedQueryKey3KeyEN4absl12lts_2022062311string_viewE",
            "__ZN8firebase9firestore5local21LevelDbQueryTargetKey9KeyPrefixEv",
            "__ZNK8firebase9firestore6remote21WatchStreamSerializer18EncodeWatchRequestERKNS0_5local10TargetDataE",
            "__ZN8firebase9firestore4util10JsonReader14OptionalStringEPKcRKN8nlohmann10basic_jsonINSt3__13mapENS7_6vectorENS7_12basic_stringIcNS7_11char_traitsIcEENS7_9allocatorIcEEEEbxydSD_NS5_14adl_serializerENS9_IhNSD_IhEEEEEERKSF_",
            "__ZN8firebase9firestore4core12EventManager19RemoveQueryListenerENSt3__110shared_ptrINS1_13QueryListenerEEE",
            "__ZNK8firebase9firestore6remote21WriteStreamSerializer19DecodeCommitVersionEPNS0_6nanopb6ReaderERKNS0_34_google_firestore_v1_WriteResponseE",
            "__ZN8firebase9firestore5local20LevelDbMutationQueue7IsEmptyEv",
            "__ZNK8firebase9firestore4core6Target15GetSegmentCountEv",
            "__ZN8firebase9firestore6remote14GrpcCompletion6CancelEv",
            "__ZN8firebase9firestore4util19ExecutorLibdispatch8ScheduleENSt3__16chrono8durationIxNS3_5ratioILl1ELl1000EEEEEiONS3_8functionIFvvEEE",
            "__ZN8firebase9firestore6remote11TargetState20RecordTargetResponseEv",
            "__ZN8firebase9firestore5local13LevelDbOpener14PrepareDataDirEv",
            "__ZN8firebase9firestore11credentials35FirebaseAppCheckCredentialsProviderD2Ev",
            "__ZN8firebase9firestore4util6Status9FromErrnoEiN4absl12lts_2022062311string_viewE",
            "__ZNK8firebase9firestore6bundle16BundleSerializer14DecodeDocumentERNS0_4util10JsonReaderERKN8nlohmann10basic_jsonINSt3__13mapENS8_6vectorENS8_12basic_stringIcNS8_11char_traitsIcEENS8_9allocatorIcEEEEbxydSE_NS6_14adl_serializerENSA_IhNSE_IhEEEEEE",
            "__ZN8firebase9firestore4core16ParsedUpdateDataC1ENS0_5model11ObjectValueENS3_9FieldMaskENSt3__16vectorINS3_14FieldTransformENS6_9allocatorIS8_EEEE",
            "__ZN8firebase9firestore6remote10GrpcStream12TryLastWriteEON4grpc10ByteBufferE",
            "__ZN8firebase9firestore5model14VerifyMutationC2ERKNS1_8MutationE",
            "__ZN8firebase9firestore6nanopb4swapERNS1_10ByteStringES3_",
            "__ZN8firebase9firestore4core12EventManagerC1EPNS1_16QueryEventSourceE",
            "__ZN8firebase9firestore5local21LevelDbQueryTargetKey6DecodeEN4absl12lts_2022062311string_viewE",
            "__ZN8firebase9firestore4core13QueryListener14OnViewSnapshotENS1_12ViewSnapshotE",
            "__ZNK8firebase9firestore4util11ExecutorStd14IsTagScheduledEi",
            "__ZN8firebase9firestore4core15FirestoreClient10LoadBundleENSt3__110unique_ptrINS0_4util10ByteStreamENS3_14default_deleteIS6_EEEENS3_10shared_ptrINS0_3api14LoadBundleTaskEEE",
            "__ZN8firebase9firestore5local45LevelDbDocumentOverlayCollectionGroupIndexKey9KeyPrefixEN4absl12lts_2022062311string_viewES5_",
            "__ZN8firebase9firestore6remote11RemoteStore17OnWatchStreamOpenEv",
            "__ZN8firebase9firestore5local20LevelDbNamedQueryKey6DecodeEN4absl12lts_2022062311string_viewE",
            "__ZN8firebase9firestore6remote14GrpcConnection8RegisterEPNS1_8GrpcCallE",
            "__ZN8firebase9firestore6remote9Datastore15LookupDocumentsERKNSt3__16vectorINS0_5model11DocumentKeyENS3_9allocatorIS6_EEEEONS3_8functionIFvRKNS0_4util8StatusOrINS4_INS5_8DocumentENS7_ISF_EEEEEEEEE",
            "__ZN8firebase9firestore5local20LevelDbMutationQueue16AddMutationBatchERKNS_9TimestampEONSt3__16vectorINS0_5model8MutationENS6_9allocatorIS9_EEEESD_",
            "__ZNK8firebase9firestore4util4Path8BasenameEv",
            "__ZNK8firebase9firestore5local27LevelDbDocumentOverlayCache12ParseOverlayERKNS1_25LevelDbDocumentOverlayKeyEN4absl12lts_2022062311string_viewE",
            "__ZN8firebase9firestore3api9Firestore12set_settingsERKNS1_8SettingsE",
            "__ZN8firebase9firestore4util6Status9FromCauseENSt3__112basic_stringIcNS3_11char_traitsIcEENS3_9allocatorIcEEEERKS2_",
            "__ZN8firebase9firestore5local19MemoryMutationQueue39AllMutationBatchesAffectingDocumentKeysERKNS0_9immutable9SortedSetINS0_5model11DocumentKeyENS0_4util10ComparatorIS6_EEEE",
            "__ZNK8firebase9firestore4core6Target14GetNotInValuesERKNS0_5model10FieldIndexE",
            "__ZNK8firebase9firestore18_google_rpc_Status8ToStringEi",
            "__ZNK8firebase9firestore4core11FieldFilter3Rep17MatchesComparisonENS0_4util16ComparisonResultE",
            "__ZN8firebase9firestore11credentials31FirebaseAuthCredentialsProvider27SetCredentialChangeListenerENSt3__18functionIFvNS1_4UserEEEE",
            "__ZN8firebase9firestore6remote14GrpcConnection8ShutdownEv",
            "__ZNK8firebase9firestore5local27LevelDbDocumentOverlayCache32GetLargestBatchIdIndexEntryCountEv",
            "__ZNK8firebase9firestore5model8Mutation3Rep16VerifyKeyMatchesERKNS1_15MutableDocumentE",
            "__ZNK8firebase9firestore5local15LocalSerializer13DecodeVersionEPNS0_6nanopb6ReaderERKNS0_26_google_protobuf_TimestampE",
            "__ZN8firebase9firestore5localeqERKNS1_10TargetDataES4_",
            "__ZN8firebase9firestore5local10LocalStore16ApplyBatchResultERKNS0_5model19MutationBatchResultE",
            "__ZNK8firebase9firestore4core5Bound4HashEv",
            "__ZN8firebase9firestore5local19LevelDbIndexManager12GetIndexTypeERKNS0_4core6TargetE",
            "__ZNK8firebase9firestore31_google_firestore_v1_ArrayValue8ToStringEi",
            "__ZN8firebase9firestore4core19ArrayContainsFilterC1ERKNS0_5model9FieldPathENS0_6nanopb13SharedMessageINS0_26_google_firestore_v1_ValueEEE",
            "__ZN8firebase9firestore5model13CompareArraysERKNS0_26_google_firestore_v1_ValueES4_",
            "__ZNK8firebase9firestore6remote10Serializer29DecodeCompositeFilterOperatorEPNS0_4util11ReadContextENS0_61_google_firestore_v1_StructuredQuery_CompositeFilter_OperatorE",
            "__ZNK8firebase9firestore3api17DocumentReference22GetCollectionReferenceERKNSt3__112basic_stringIcNS3_11char_traitsIcEENS3_9allocatorIcEEEE",
            "__ZNK8firebase9firestore6remote21WriteStreamSerializer24EncodeEmptyMutationsListERKNS0_6nanopb10ByteStringE",
            "__ZNK8firebase9firestore6remote19DatastoreSerializer27EncodeAggregateQueryRequestERKNS0_4core5QueryERKNSt3__16vectorINS0_5model14AggregateFieldENS7_9allocatorISA_EEEERN4absl12lts_2022062313flat_hash_mapINS7_12basic_stringIcNS7_11char_traitsIcEENSB_IcEEEESN_NSH_18container_internal10StringHashENSO_8StringEqENSB_INS7_4pairIKSN_SN_EEEEEE",
            "__ZN8firebase9firestore5local19MemoryMutationQueue11ContainsKeyERKNS0_5model11DocumentKeyE",
            "__ZN8firebase9firestore5modelltERKNS1_11DocumentKeyES4_",
            "__ZNK8firebase9firestore5local18MemoryIndexManager15GetFieldIndexesEv",
            "__ZN8firebase9firestore4util12TestingHooks11GetInstanceEv",
            "__ZN8firebase9firestore4util10AsyncQueue15EnqueueBlockingERKNSt3__18functionIFvvEEE",
            "__ZNK8firebase9firestore5model11SetMutation3Rep8ToStringEv",
            "__ZN8firebase9firestore4utileqERKNS1_4PathES4_",
            "__ZN8firebase9firestore6remote16ByteBufferReaderC2ERKN4grpc10ByteBufferE",
            "__ZN8firebase9firestore6remote18ExponentialBackoff13BackoffAndRunEONSt3__18functionIFvvEEE",
            "__ZNK8firebase9firestore26_google_protobuf_Timestamp8ToStringEi",
            "__ZNK8firebase9firestore5local17MemoryBundleCache17GetBundleMetadataERKNSt3__112basic_stringIcNS3_11char_traitsIcEENS3_9allocatorIcEEEE",
            "__ZNK8firebase9firestore6remote21WatchStreamSerializer21DecodeSnapshotVersionEPNS0_6nanopb6ReaderERKNS0_35_google_firestore_v1_ListenResponseE",
            "__ZN8firebase9firestore4core15FirestoreClient7DisposeEv",
            "__ZN8firebase9firestore6remote10Serializer23DecodeTargetChangeStateEPNS0_4util11ReadContextENS0_50_google_firestore_v1_TargetChange_TargetChangeTypeE",
            "__ZNK8firebase9firestore5local27LevelDbDocumentOverlayCache11GetOverlaysEN4absl12lts_2022062311string_viewEim",
            "__ZNK8firebase9firestore6remote10Serializer21EncodeDocumentsTargetERKNS0_4core6TargetE",
            "__ZNK8firebase9firestore5local25MemoryRemoteDocumentCache3GetERKNS0_5model11DocumentKeyE",
            "__ZN8firebase9firestore5model15SnapshotVersion4NoneEv",
            "__ZN8firebase9firestore5local26LevelDbRemoteDocumentCacheD1Ev",
            "__ZN8firebase9firestore6nanopb12StringWriterC1Ev",
            "__ZN8firebase9firestore6nanopb10ByteStringC1ESt16initializer_listIhE",
            "__ZN8firebase9firestore5local20LevelDbMutationQueue19LookupMutationBatchEi",
            "__ZNK8firebase9firestore5model18TargetIndexMatcher13ServedByIndexERKNS1_10FieldIndexE",
            "__ZN8firebase9firestore5local28MemoryEagerReferenceDelegate15AddInMemoryPinsEPNS1_12ReferenceSetE",
            "__ZNK8firebase9firestore6nanopb10ByteString9CompareToERKS2_",
            "__ZN8firebase9firestore5local18LevelDbTargetCache24EnumerateSequenceNumbersERKNSt3__18functionIFvxEEE",
            "__ZN8firebase9firestore6remote11TargetState20RemoveDocumentChangeERKNS0_5model11DocumentKeyE",
            "__ZNK8firebase9firestore19_google_type_LatLng8ToStringEi",
            "__ZN8firebase9firestore6bundle12BundleReader14GetNextElementEv",
            "__ZNK8firebase9firestore5model12Precondition10IsValidForERKNS1_15MutableDocumentE",
            "__ZN8firebase9firestore3api14LoadBundleTask14RemoveObserverERKx",
            "__ZN8firebase9firestore4core16KeyFieldInFilterC1ERKNS0_5model9FieldPathENS0_6nanopb13SharedMessageINS0_26_google_firestore_v1_ValueEEE",
            "__ZN8firebase9firestore5model14DeleteMutationC1ENS1_11DocumentKeyENS1_12PreconditionE",
            "__ZN8firebase9firestore5local27LevelDbLruReferenceDelegate30EnumerateTargetSequenceNumbersERKNSt3__18functionIFvxEEE",
            "__ZNK8firebase9firestore4core5Query5limitEv",
            "__ZNK8firebase9firestore4core15CompositeFilter3Rep19GetFlattenedFiltersEv",
            "__ZN8firebase9firestore4core15FirestoreClientC1ERKNS1_12DatabaseInfoENSt3__110shared_ptrINS0_11credentials19CredentialsProviderINS8_9AuthTokenENS8_4UserEEEEENS7_INS9_INS6_12basic_stringIcNS6_11char_traitsIcEENS6_9allocatorIcEEEESJ_EEEENS7_INS0_4util8ExecutorEEENS7_INSM_10AsyncQueueEEENS6_10unique_ptrINS0_6remote24FirebaseMetadataProviderENS6_14default_deleteIST_EEEE",
            "__ZNK8firebase9firestore6remote19DatastoreSerializer19EncodeLookupRequestERKNSt3__16vectorINS0_5model11DocumentKeyENS3_9allocatorIS6_EEEE",
            "__ZN8firebase9firestore5local17MemoryTargetCache27RemoveMatchingKeysForTargetEi",
            "__ZNK8firebase9firestore5local15LocalSerializer18DecodeBundledQueryEPNS0_6nanopb6ReaderERNS0_23_firestore_BundledQueryE",
            "__ZN8firebase9firestore4util15ByteStreamApple13ConsumeBufferEv",
            "__ZN8firebase9firestore5local44LevelDbDocumentOverlayLargestBatchIdIndexKey6DecodeEN4absl12lts_2022062311string_viewE",
            "__ZNK8firebase9firestore5local18LevelDbTargetCache28GetLastRemoteSnapshotVersionEv",
            "__ZNK8firebase9firestore3api13QuerySnapshot13ForEachChangeEbRKNSt3__18functionIFvNS1_14DocumentChangeEEEE",
            "__ZN8firebase9firestore4core10SyncEngine20HandleRejectedListenEiNS0_4util6StatusE",
            "__ZNK8firebase9firestore28_google_protobuf_UInt64Value8ToStringEi",
            "__ZNK8firebase9firestore6remote14GrpcConnection13CreateContextERKNS0_11credentials9AuthTokenERKNSt3__112basic_stringIcNS7_11char_traitsIcEENS7_9allocatorIcEEEE",
            "__ZN8firebase9firestore6remote19ConnectivityMonitor6CreateERKNSt3__110shared_ptrINS0_4util10AsyncQueueEEE",
            "__ZNK8firebase9firestore4util4Path10AppendUtf8EN4absl12lts_2022062311string_viewE",
            "__ZN8firebase9firestore4coreeqERKNS1_6FilterES4_",
            "__ZNK8firebase9firestore6remote10Serializer21DecodeExistenceFilterERKNS0_36_google_firestore_v1_ExistenceFilterE",
            "__ZNK8firebase9firestore4core16ParseAccumulator8ContainsERKNS0_5model9FieldPathE",
            "__ZNK8firebase9firestore5local15LocalSerializer16EncodeNamedQueryERKNS0_6bundle10NamedQueryE",
            "__ZN8firebase9firestore5modeleqERKNS1_13MutationBatchES4_",
            "__ZN8firebase9firestore11credentials31FirebaseAuthCredentialsProviderC1EP6FIRAppPU25objcproto14FIRAuthInterop11objc_object",
            "__ZN8firebase9firestore5local19LevelDbIndexManager19ComputeIndexEntriesERKNS0_5model8DocumentERKNS3_10FieldIndexE",
            "__ZN8firebase9firestore6remote6Stream18RequestCredentialsEv",
            "__ZN8firebase9firestore5local19MemoryMutationQueue31GetHighestUnacknowledgedBatchIdEv",
            "__ZN8firebase9firestore4util11OrderedCode18WriteNumIncreasingEPNSt3__112basic_stringIcNS3_11char_traitsIcEENS3_9allocatorIcEEEEy",
            "__ZNK8firebase9firestore5model13MutationBatch20ApplyToLocalDocumentERNS1_15MutableDocumentE",
            "__ZNK8firebase9firestore5local26LevelDbRemoteDocumentCache19DecodeMaybeDocumentEN4absl12lts_2022062311string_viewERKNS0_5model11DocumentKeyE",
            "__ZN8firebase9firestore5local25LevelDbDocumentOverlayKey3KeyEN4absl12lts_2022062311string_viewERKNS0_5model11DocumentKeyEi",
            "__ZN8firebase9firestore6remote10GrpcStream15MaybeUnregisterEv",
            "__ZNK8firebase9firestore4util8Schedule12HasDueLockedEv",
            "__ZNK8firebase9firestore5model12Precondition4HashEv",
            "__ZN8firebase9firestore11credentials31FirebaseAuthCredentialsProviderD0Ev",
            "__ZN8firebase9firestore4util10Filesystem8FileSizeERKNS1_4PathE",
            "__ZNK8firebase9firestore6nanopb10ByteString4dataEv",
            "__ZN8firebase9firestore4util15BackgroundQueue8AwaitAllEv",
            "__ZN8firebase9firestore6remote13GrpcUnaryCallC2ENSt3__110unique_ptrIN4grpc13ClientContextENS3_14default_deleteIS6_EEEENS4_INS5_25ClientAsyncResponseReaderINS5_10ByteBufferEEENS7_ISC_EEEERKNS3_10shared_ptrINS0_4util10AsyncQueueEEEPNS1_14GrpcConnectionERKSB_",
            "__ZNK8firebase9firestore5model14ArrayTransform3Rep22CoercedFieldValueArrayERKN4absl12lts_202206238optionalINS0_26_google_firestore_v1_ValueEEE",
            "__ZNK8firebase9firestore5local17MemoryBundleCache13GetNamedQueryERKNSt3__112basic_stringIcNS3_11char_traitsIcEENS3_9allocatorIcEEEE",
            "__ZNK8firebase9firestore3api5Query12AddNewFilterEONS0_4core6FilterE",
            "__ZN8firebase9firestore5local24LevelDbDocumentTargetKey9KeyPrefixEv",
            "__ZNK8firebase9firestore47_google_firestore_v1_RunAggregationQueryRequest8ToStringEi",
            "__ZNK8firebase9firestore5local26MemoryLruReferenceDelegate23current_sequence_numberEv",
            "__ZNK8firebase9firestore6remote21WriteStreamSerializer15EncodeHandshakeEv",
            "__ZNK8firebase9firestore5local18LevelDbTransaction8Iterator3keyEv",
            "__ZN8firebase9firestore4util4Path20MutableAppendSegmentEPKcm",
            "__ZN8firebase9firestore4core17TransactionRunner14DispatchResultERKNSt3__110shared_ptrINS1_11TransactionEEENS0_4util6StatusE",
            "__ZN8firebase9firestore5model13PatchMutationC2ENS1_11DocumentKeyENS1_11ObjectValueENS1_9FieldMaskENS1_12PreconditionENSt3__16vectorINS1_14FieldTransformENS7_9allocatorIS9_EEEE",
            "__ZN8firebase9firestore5model10SortFieldsERNS0_26_google_firestore_v1_ValueE",
            "__ZNK8firebase9firestore5model10DatabaseId4HashEv",
            "__ZNK8firebase9firestore5local18LevelDbBundleCache13GetNamedQueryERKNSt3__112basic_stringIcNS3_11char_traitsIcEENS3_9allocatorIcEEEE",
            "__ZNK8firebase9firestore4core22ArrayContainsAnyFilter3Rep7MatchesERKNS0_5model8DocumentE",
            "__ZN8firebase9firestore5local27LevelDbDocumentOverlayCache13DeleteOverlayERKNS1_25LevelDbDocumentOverlayKeyE",
            "__ZNK8firebase9firestore6bundle16BundleSerializer21DecodeCompositeFilterERNS0_4util10JsonReaderERKN8nlohmann10basic_jsonINSt3__13mapENS8_6vectorENS8_12basic_stringIcNS8_11char_traitsIcEENS8_9allocatorIcEEEEbxydSE_NS6_14adl_serializerENSA_IhNSE_IhEEEEEE",
            "__ZNK8firebase9firestore5local18MemoryIndexManager15GetFieldIndexesERKNSt3__112basic_stringIcNS3_11char_traitsIcEENS3_9allocatorIcEEEE",
            "__ZN8firebase9firestore5local19MemoryMutationQueue7IsEmptyEv",
            "__ZN8firebase9firestore5model11SetMutationC1ENS1_11DocumentKeyENS1_11ObjectValueENS1_12PreconditionENSt3__16vectorINS1_14FieldTransformENS6_9allocatorIS8_EEEE",
            "__ZN8firebase9firestore5local30LevelDbOverlayMigrationManager26HasPendingOverlayMigrationEv",
            "__ZN8firebase9firestore4util11OrderedCode20ReadDoubleIncreasingEPN4absl12lts_2022062311string_viewEPd",
            "__ZN8firebase9firestore6remote10GrpcStreamD0Ev",
            "__ZNK8firebase9firestore5model14MutationResult8ToStringEv",
            "__ZN8firebase9firestore4util18ImmediateSuccessorEN4absl12lts_2022062311string_viewE",
            "__ZN8firebase9firestore5local24LevelDbRemoteDocumentKey9KeyPrefixEv",
            "__ZNK8firebase9firestore4core5Bound14PositionStringEv",
            "__ZN8firebase9firestore5local19LevelDbIndexManager13GetSubTargetsERKNS0_4core6TargetE",
            "__ZNK8firebase9firestore4core5Query13MatchesBoundsERKNS0_5model8DocumentE",
            "__ZN8firebase9firestore5local19LevelDbIndexManager26GetDocumentsMatchingTargetERKNS0_4core6TargetE",
            "__ZNK8firebase9firestore5local11QueryEngine25GetDocumentsMatchingQueryERKNS0_4core5QueryERKNS0_5model15SnapshotVersionERKNS0_9immutable9SortedSetINS7_11DocumentKeyENS0_4util10ComparatorISD_EEEE",
            "__ZN8firebase9firestore5local10LocalStore17NewUmbrellaTargetERKNSt3__112basic_stringIcNS3_11char_traitsIcEENS3_9allocatorIcEEEE",
            "__ZN8firebase9firestore3api13MakeTimestampEP12FIRTimestamp",
            "__ZN8firebase9firestore5local27LevelDbLruReferenceDelegate24MutationQueuesContainKeyERKNS0_5model11DocumentKeyE",
            "__ZN8firebase9firestore4util10Filesystem20RecursivelyCreateDirERKNS1_4PathE",
            "__ZN8firebase9firestore4util8Executor16CreateConcurrentEPKci",
            "__ZN8firebase9firestoreltERKNS0_8GeoPointES3_",
            "__ZN8firebase9firestore5local20LevelDbIndexEntryKey6DecodeEN4absl12lts_2022062311string_viewE",
            "__ZN8firebase9firestore5local18LevelDbPersistence8ShutdownEv",
            "__ZN8firebase9firestore5model11SetMutationC2ENS1_11DocumentKeyENS1_11ObjectValueENS1_12PreconditionE",
            "__ZNK8firebase9firestore4core10SyncEngine13GetRemoteKeysEi",
            "__ZN8firebase9firestore6remote11BloomFilterC1ENS0_6nanopb10ByteStringEii",
            "__ZN8firebase9firestore5modeleqERKNS1_14MutationResultES4_",
            "__ZNK8firebase9firestore5model8Mutation16ApplyToLocalViewERNS1_15MutableDocumentEN4absl12lts_202206238optionalINS1_9FieldMaskEEERKNS_9TimestampE",
            "__ZN8firebase9firestore6remote19GrpcStreamingReader14OnStreamFinishERKNS0_4util6StatusE",
            "__ZNK8firebase9firestore5model7Segment9CompareToERKS2_",
            "__ZNK8firebase9firestore5model13MutationBatch20ApplyToLocalDocumentERNS1_15MutableDocumentEN4absl12lts_202206238optionalINS1_9FieldMaskEEE",
            "__ZN8firebase9firestore5local13LevelDbOpener19FirestoreAppDataDirEv",
            "__ZNK8firebase9firestore6remote10Serializer18EncodeResourceNameERKNS0_5model10DatabaseIdERKNS3_12ResourcePathE",
            "__ZN8firebase9firestore5local18LevelDbPersistence34ReleaseOtherUserSpecificComponentsERKNSt3__112basic_stringIcNS3_11char_traitsIcEENS3_9allocatorIcEEEE",
            "__ZN8firebase9firestore6remote11RemoteStore17OnWriteStreamOpenEv",
            "__ZN8firebase9firestore4core12ParseContext12ChildContextERKNSt3__112basic_stringIcNS3_11char_traitsIcEENS3_9allocatorIcEEEE",
            "__ZN8firebase9firestore6remote10GrpcStreamC2ENSt3__110unique_ptrIN4grpc13ClientContextENS3_14default_deleteIS6_EEEENS4_INS5_23ClientAsyncReaderWriterINS5_10ByteBufferESB_EENS7_ISC_EEEERKNS3_10shared_ptrINS0_4util10AsyncQueueEEEPNS1_14GrpcConnectionEPNS1_18GrpcStreamObserverE",
            "__ZN8firebase9firestore6nanopb12StringReaderC2EN4absl12lts_2022062311string_viewE",
            "__ZN8firebase9firestore6remote18ExponentialBackoffC1ERKNSt3__110shared_ptrINS0_4util10AsyncQueueEEENS5_7TimerIdEdNS3_6chrono8durationIxNS3_5ratioILl1ELl1000EEEEESF_",
            "__ZN8firebase9firestore4core13QueryListener6CreateENS1_5QueryENS1_13ListenOptionsEONSt3__18functionIFvNS0_4util8StatusOrINS1_12ViewSnapshotEEEEEE",
            "__ZNK8firebase9firestore27_google_protobuf_FloatValue8ToStringEi",
            "__ZN8firebase9firestore6remote14GrpcCompletionC1ENS2_4TypeERKNSt3__110shared_ptrINS0_4util10AsyncQueueEEEONS4_8functionIFvbRKNS5_IS2_EEEEE",
            "__ZN8firebase9firestore3api17DocumentReferenceC2ENS0_5model12ResourcePathENSt3__110shared_ptrINS1_9FirestoreEEE",
            "__ZN8firebase9firestore3api17DocumentReference14DeleteDocumentENSt3__18functionIFvNS0_4util6StatusEEEE",
            "__ZN8firebase9firestore3api16DocumentSnapshotC1ENSt3__110shared_ptrINS1_9FirestoreEEENS0_5model11DocumentKeyEN4absl12lts_202206238optionalINS7_8DocumentEEENS1_16SnapshotMetadataE",
            "__ZN8firebase9firestore5model11IndexOffset15CreateSuccessorENS1_15SnapshotVersionE",
            "__ZN8firebase9firestore4util11EmptyStringEv",
            "__ZN8firebase9firestore6remote21WatchChangeAggregator18HandleTargetChangeERKNS1_17WatchTargetChangeE",
            "__ZNK8firebase9firestore3api8Settings19persistence_enabledEv",
            "__ZN8firebase9firestore4util8Schedule4PushEPNS1_4TaskE",
            "__ZN8firebase9firestore4util11MakeNSErrorENS0_5ErrorEN4absl12lts_2022062311string_viewEP7NSError",
            "__ZNK8firebase9firestore29_google_firestore_v1_Document8ToStringEi",
            "__ZThn16_N8firebase9firestore6remote11RemoteStore18OnWriteStreamCloseERKNS0_4util6StatusE",
            "__ZNK8firebase9firestore6bundle16BundleSerializer16DecodeEndAtBoundERNS0_4util10JsonReaderERKN8nlohmann10basic_jsonINSt3__13mapENS8_6vectorENS8_12basic_stringIcNS8_11char_traitsIcEENS8_9allocatorIcEEEEbxydSE_NS6_14adl_serializerENSA_IhNSE_IhEEEEEE",
            "__ZNK8firebase9firestore6remote10Serializer15DecodeQueryPathEPNS0_4util11ReadContextEN4absl12lts_2022062311string_viewE",
            "__ZN8firebase9firestore6bundle12BundleReader29DecodeBundleElementFromBufferEv",
            "__ZN8firebase9firestore6remote14GrpcConnection18UseInsecureChannelERKNSt3__112basic_stringIcNS3_11char_traitsIcEENS3_9allocatorIcEEEE",
            "__ZNK8firebase9firestore5local25MemoryRemoteDocumentCache6GetAllERKNSt3__112basic_stringIcNS3_11char_traitsIcEENS3_9allocatorIcEEEERKNS0_5model11IndexOffsetEm",
            "__ZNK8firebase9firestore5model11ObjectValue16ExtractFieldMaskERKNS0_29_google_firestore_v1_MapValueE",
            "__ZNK8firebase9firestore6remote6Stream6IsOpenEv",
            "__ZN8firebase9firestore5model6EqualsERKNS0_26_google_firestore_v1_ValueES4_",
            "__ZN8firebase9firestore6nanopb12StringReaderC2EPKhm",
            "__ZNK8firebase9firestore5model11SetMutation3Rep4HashEv",
            "__ZN8firebase9firestore6remote10Serializer15DecodeFieldPathEPNS0_4util11ReadContextEPK16pb_bytes_array_s",
            "__ZN8firebase9firestore5local11DescribeKeyERKNSt3__110unique_ptrINS1_18LevelDbTransaction8IteratorENS2_14default_deleteIS5_EEEE",
            "__ZN8firebase9firestore5local19LevelDbIndexManager23GetExistingIndexEntriesERKNS0_5model11DocumentKeyERKNS3_10FieldIndexE",
            "__ZN8firebase9firestore5modeleqERKNS1_11DocumentSetES4_",
            "__ZN8firebase9firestore4core19LimboDocumentChangeC1ENS2_4TypeENS0_5model11DocumentKeyE",
            "__ZN8firebase9firestore5model9FieldPath16ValidateSegmentsERKNSt3__16vectorINS3_12basic_stringIcNS3_11char_traitsIcEENS3_9allocatorIcEEEENS8_ISA_EEEE",
            "__ZNK8firebase9firestore5local20DocumentOverlayCache11GetOverlaysERNSt3__113unordered_mapINS0_5model11DocumentKeyENS5_7OverlayENS5_15DocumentKeyHashENS3_8equal_toIS6_EENS3_9allocatorINS3_4pairIKS6_S7_EEEEEERKNS3_3setIS6_NS3_4lessIS6_EENSB_IS6_EEEE",
            "__ZN8firebase9firestore5model11ObjectValue24FromAggregateFieldsEntryEPNS0_59_google_firestore_v1_AggregationResult_AggregateFieldsEntryEjRKN4absl12lts_2022062313flat_hash_mapINSt3__112basic_stringIcNS8_11char_traitsIcEENS8_9allocatorIcEEEESE_NS6_18container_internal10StringHashENSF_8StringEqENSC_INS8_4pairIKSE_SE_EEEEEE",
            "__ZN8firebase9firestore3api14AggregateQuery3GetEONSt3__18functionIFvRKNS0_4util8StatusOrIxEEEEE",
            "__ZNK8firebase9firestore3api5Query7OrderByENS0_5model9FieldPathENS0_4core9DirectionE",
            "__ZN8firebase9firestore6remote9Datastore14RemoveGrpcCallEPNS1_8GrpcCallE",
            "__ZNK8firebase9firestore39_google_firestore_v1_TransactionOptions8ToStringEi",
            "__ZNK8firebase9firestore6remote10Serializer19DecodeFoundDocumentEPNS0_4util11ReadContextERNS0_46_google_firestore_v1_BatchGetDocumentsResponseE",
            "__ZN8firebase9firestore4util15BackgroundQueue7ExecuteEONSt3__18functionIFvvEEE",
            "__ZNK8firebase9firestore6remote11RemoteStore13GetDatabaseIdEv",
            "__ZN8firebase9firestore5local17MemoryPersistence15GetIndexManagerERKNS0_11credentials4UserE",
            "__ZN8firebase9firestore6remote11RemoteStore6ListenENS0_5local10TargetDataE",
            "__ZNK8firebase9firestore6remote10Serializer15EncodeQueryPathERKNS0_5model12ResourcePathE",
            "__ZN8firebase9firestore4core15CompositeFilterC1EONSt3__110shared_ptrIKNS1_6Filter3RepEEE",
            "__ZN8firebase9firestore4util10JsonReader14RequiredStringEPKcRKN8nlohmann10basic_jsonINSt3__13mapENS7_6vectorENS7_12basic_stringIcNS7_11char_traitsIcEENS7_9allocatorIcEEEEbxydSD_NS5_14adl_serializerENS9_IhNSD_IhEEEEEE",
            "__ZN8firebase9firestore4util19ExecutorLibdispatchD1Ev",
            "__ZN8firebase9firestore6remote9Datastore15CommitMutationsERKNSt3__16vectorINS0_5model8MutationENS3_9allocatorIS6_EEEEONS3_8functionIFvRKNS0_4util6StatusEEEE",
            "__ZNK8firebase9firestore3api17DocumentReference4PathEv",
            "__ZN8firebase9firestore5model18TargetIndexMatcherC1ERKNS0_4core6TargetE",
            "__ZN8firebase9firestore6remote13GrpcUnaryCall5StartEONSt3__18functionIFvRKNS0_4util8StatusOrIN4grpc10ByteBufferEEEEEE",
            "__ZN8firebase9firestore4util10LogicUtils19IsSingleFieldFilterERKNS0_4core6FilterE",
            "__ZN8firebase9firestore6remote10Serializer18DecodePreconditionEPNS0_4util11ReadContextERKNS0_33_google_firestore_v1_PreconditionE",
            "__ZN8firebase9firestore6remote11RemoteStore22HandleCredentialChangeEv",
            "__ZN8firebase9firestore6remote19GrpcStreamingReader15FinishAndNotifyERKNS0_4util6StatusE",
            "__ZN8firebase9firestore6remote11RemoteStore13StopListeningEi",
            "__ZN8firebase9firestore12EnumToStringENS0_65_google_firestore_v1_DocumentTransform_FieldTransform_ServerValueE",
            "__ZN8firebase9firestore4core13ParsedSetDataC2ENS0_5model11ObjectValueENS3_9FieldMaskENSt3__16vectorINS3_14FieldTransformENS6_9allocatorIS8_EEEE",
            "__ZN8firebase9firestore4corelsERNSt3__113basic_ostreamIcNS2_11char_traitsIcEEEERKNS1_5BoundE",
            "__ZN8firebase9firestore4util10AsyncQueue20SkipDelaysForTimerIdENS1_7TimerIdE",
            "__ZN8firebase9firestore6remote11RemoteStore8ShutdownEv",
            "__ZN8firebase9firestore6remote11RemoteStore17FillWritePipelineEv",
            "__ZN8firebase9firestore4util15PrefixSuccessorEN4absl12lts_2022062311string_viewE",
            "__ZN8firebase9firestore5local25MemoryRemoteDocumentCache3AddERKNS0_5model15MutableDocumentERKNS3_15SnapshotVersionE",
            "__ZNK8firebase9firestore5model14AggregateField4HashEv",
            "__ZN8firebase9firestore3api9Firestore7DisposeEv",
            "__ZN8firebase9firestore5local18LevelDbTargetCache26EnumerateOrphanedDocumentsERKNSt3__18functionIFvRKNS0_5model11DocumentKeyExEEE",
            "__ZNK8firebase9firestore6remote10Serializer17EncodeQueryTargetERKNS0_4core6TargetE",
            "__ZNK8firebase9firestore34_google_firestore_v1_WriteResponse8ToStringEi",
            "__ZN8firebase9firestore4util4Path8FromUtf8EN4absl12lts_2022062311string_viewE",
            "__ZN8firebase9firestore4core16KeyFieldInFilterC2ERKNS0_5model9FieldPathENS0_6nanopb13SharedMessageINS0_26_google_firestore_v1_ValueEEE",
            "__ZN8firebase9firestore6remote11RemoteStore14DisableNetworkEv",
            "__ZN8firebase9firestore4core13QueryListener7OnErrorENS0_4util6StatusE",
            "__ZN8firebase9firestore5local16LocalViewChanges16FromViewSnapshotERKNS0_4core12ViewSnapshotEi",
            "__ZN8firebase9firestore6remote11RemoteStore20HandleHandshakeErrorERKNS0_4util6StatusE",
            "__ZN8firebase9firestore6nanopb16ByteStringWriterD2Ev",
            "__ZN8firebase9firestore4core15CompositeFilter6CreateEONSt3__16vectorINS1_6FilterENS3_9allocatorIS5_EEEENS2_8OperatorE",
            "__ZN8firebase9firestore5model10SortFieldsERNS0_29_google_firestore_v1_MapValueE",
            "__ZN8firebase9firestore5local18LevelDbPersistence26GetOverlayMigrationManagerERKNS0_11credentials4UserE",
            "__ZN8firebase9firestore6remote14GrpcConnectionC1ERKNS0_4core12DatabaseInfoERKNSt3__110shared_ptrINS0_4util10AsyncQueueEEEPN4grpc15CompletionQueueEPNS1_19ConnectivityMonitorEPNS1_24FirebaseMetadataProviderE",
            "__ZNK8firebase9firestore36_google_firestore_v1_RollbackRequest8ToStringEi",
            "__ZN8firebase9firestore5local45LevelDbDocumentOverlayCollectionGroupIndexKey9KeyPrefixEN4absl12lts_2022062311string_viewES5_i",
            "__ZNK8firebase9firestore5local18LocalDocumentsView16PopulateOverlaysERNSt3__113unordered_mapINS0_5model11DocumentKeyENS5_7OverlayENS5_15DocumentKeyHashENS3_8equal_toIS6_EENS3_9allocatorINS3_4pairIKS6_S7_EEEEEERKNS0_9immutable9SortedSetIS6_NS0_4util10ComparatorIS6_EEEE",
            "__ZN8firebase9firestore11credentials4UserC2ENSt3__112basic_stringIcNS3_11char_traitsIcEENS3_9allocatorIcEEEE",
            "__ZN8firebase9firestore5local25MemoryRemoteDocumentCache17CalculateByteSizeERKNS1_5SizerE",
            "__ZN8firebase9firestore4core10SyncEngine28PumpEnqueuedLimboResolutionsEv",
            "__ZN8firebase9firestore6nanopb10ByteStringC2EOS2_",
            "__ZNK8firebase9firestore6remote10Serializer20DecodeDocumentChangeEPNS0_4util11ReadContextERNS0_35_google_firestore_v1_DocumentChangeE",
            "__ZN8firebase9firestore5local23LevelDbDataMigrationKey6DecodeEN4absl12lts_2022062311string_viewE",
            "__ZN8firebase9firestore5model15MutableDocument24ConvertToUnknownDocumentERKNS1_15SnapshotVersionE",
            "__ZThn8_N8firebase9firestore6remote11RemoteStore17OnWatchStreamOpenEv",
            "__ZNK8firebase9firestore4core5Query11CanonicalIdEv",
            "__ZNK8firebase9firestore24_firestore_client_Target8ToStringEi",
            "__ZNK8firebase9firestore6bundle16BundleSerializer18DecodeStartAtBoundERNS0_4util10JsonReaderERKN8nlohmann10basic_jsonINSt3__13mapENS8_6vectorENS8_12basic_stringIcNS8_11char_traitsIcEENS8_9allocatorIcEEEEbxydSE_NS6_14adl_serializerENSA_IhNSE_IhEEEEEE",
            "__ZNK8firebase9firestore6remote10Serializer14EncodeMutationERKNS0_5model8MutationE",
            "__ZN8firebase9firestore4util6Status12empty_stringEv",
            "__ZN8firebase9firestore3apineERKNS1_19MemoryLruGcSettingsES4_",
            "__ZN8firebase9firestore6remote10GrpcStreamC1ENSt3__110unique_ptrIN4grpc13ClientContextENS3_14default_deleteIS6_EEEENS4_INS5_23ClientAsyncReaderWriterINS5_10ByteBufferESB_EENS7_ISC_EEEERKNS3_10shared_ptrINS0_4util10AsyncQueueEEEPNS1_14GrpcConnectionEPNS1_18GrpcStreamObserverE",
            "__ZN8firebase9firestore5local25MemoryRemoteDocumentCacheC1EPNS1_17MemoryPersistenceE",
            "__ZN8firebase9firestore5local16LevelDbBundleKey6DecodeEN4absl12lts_2022062311string_viewE",
            "__ZN8firebase9firestore4core11NotInFilterC1ERKNS0_5model9FieldPathENS0_6nanopb13SharedMessageINS0_26_google_firestore_v1_ValueEEE",
            "__ZN8firebase9firestore4util10Filesystem10AppDataDirEN4absl12lts_2022062311string_viewE",
            "__ZN8firebase9firestore4core8InFilterC2ERKNS0_5model9FieldPathENS0_6nanopb13SharedMessageINS0_26_google_firestore_v1_ValueEEE",
            "__ZN8firebase9firestore5local40LevelDbDocumentOverlayCollectionIndexKey9KeyPrefixEN4absl12lts_2022062311string_viewERKNS0_5model12ResourcePathE",
            "__ZN8firebase9firestore4core11TransactionC1ENSt3__110shared_ptrINS0_6remote9DatastoreEEE",
            "__ZNK8firebase9firestore4core14KeyFieldFilter3Rep7MatchesERKNS0_5model8DocumentE",
            "__ZN8firebase9firestore5local10TargetData7InvalidEv",
            "__ZNK8firebase9firestore4util6Status8ToStringEv",
            "__ZN8firebase9firestore3api17DocumentReference11GetDocumentENS1_6SourceEONSt3__110unique_ptrINS0_4core13EventListenerINS1_16DocumentSnapshotEEENS4_14default_deleteIS9_EEEE",
            "__ZN8firebase9firestore5local10LocalStoreC1EPNS1_11PersistenceEPNS1_11QueryEngineERKNS0_11credentials4UserE",
            "__ZN8firebase9firestore6remote11RemoteStore27OnWriteStreamMutationResultENS0_5model15SnapshotVersionENSt3__16vectorINS3_14MutationResultENS5_9allocatorIS7_EEEE",
            "__ZN8firebase9firestore3api14LoadBundleTaskD1Ev",
            "__ZN8firebase9firestore5model17CanonifyTimestampERKNS0_26_google_firestore_v1_ValueE",
            "__ZNK8firebase9firestore65_google_firestore_v1_StructuredAggregationQuery_Aggregation_Count8ToStringEi",
            "__ZN8firebase9firestore3api13MakeTimestampEP6NSDate",
            "__ZN8firebase9firestore5local26LevelDbCollectionParentKey9KeyPrefixEv",
            "__ZNK8firebase9firestore4core16KeyFieldInFilter3Rep7MatchesERKNS0_5model8DocumentE",
            "__ZN8firebase9firestore6remote14GrpcCompletion6CreateENS2_4TypeERKNSt3__110shared_ptrINS0_4util10AsyncQueueEEEONS4_8functionIFvbRKNS5_IS2_EEEEE",
            "__ZN8firebase9firestore3apieqERKNS1_21MemoryEagerGcSettingsES4_",
            "__ZN8firebase9firestore4core15FirestoreClient14TerminateAsyncENSt3__18functionIFvNS0_4util6StatusEEEE",
            "__ZN8firebase9firestore5local18LevelDbTransactionC1EPN7leveldb2DBEN4absl12lts_2022062311string_viewERKNS3_11ReadOptionsERKNS3_12WriteOptionsE",
            "__ZN8firebase9firestore5model12CanonifyBlobERKNS0_26_google_firestore_v1_ValueE",
            "__ZN8firebase9firestore6remote11WatchStream8TearDownEPNS1_10GrpcStreamE",
            "__ZN8firebase9firestore5model12PreconditionC2ENS2_4TypeENS1_15SnapshotVersionEb",
            "__ZNK8firebase9firestore6remote10Serializer20DecodeDocumentRemoveEPNS0_4util11ReadContextERKNS0_35_google_firestore_v1_DocumentRemoveE",
            "__ZN8firebase9firestore6remote9Datastore29GetAllowlistedHeadersAsStringERKNSt3__18multimapIN4grpc10string_refES6_NS3_4lessIS6_EENS3_9allocatorINS3_4pairIKS6_S6_EEEEEE",
            "__ZN8firebase9firestore5model16CompareGeoPointsERKNS0_26_google_firestore_v1_ValueES4_",
            "__ZN8firebase9firestore4core15FirestoreClient21ConfigureFieldIndexesENSt3__16vectorINS0_5model10FieldIndexENS3_9allocatorIS6_EEEE",
            "__ZN8firebase9firestore4core11NotInFilterC2ERKNS0_5model9FieldPathENS0_6nanopb13SharedMessageINS0_26_google_firestore_v1_ValueEEE",
            "__ZN8firebase9firestore4util8internal18StringFormatPiecesEPKcSt16initializer_listIN4absl12lts_2022062311string_viewEE",
            "__ZNK8firebase9firestore5model12Precondition8ToStringEv",
            "__ZN8firebase9firestore5local12ReferenceSet12AddReferenceERKNS0_5model11DocumentKeyEi",
            "__ZN8firebase9firestore3api8SettingsC1ERKS2_",
            "__ZN8firebase9firestore6nanopb8internal8ToStringEf",
            "__ZN8firebase9firestore4core15FirestoreClient14WriteMutationsEONSt3__16vectorINS0_5model8MutationENS3_9allocatorIS6_EEEENS3_8functionIFvNS0_4util6StatusEEEE",
            "__ZN8firebase9firestore4core10SyncEngine19HandleRejectedWriteEiNS0_4util6StatusE",
            "__ZN8firebase9firestore5local10LocalStore12WriteLocallyEONSt3__16vectorINS0_5model8MutationENS3_9allocatorIS6_EEEE",
            "__ZN8firebase9firestore4core16ParseAccumulator20AddToFieldTransformsENS0_5model9FieldPathENS3_18TransformOperationE",
            "__ZNK8firebase9firestore4util10AsyncQueue10is_runningEv",
            "__ZN8firebase9firestore5local18LevelDbTargetCache13RemoveTargetsExRKNSt3__113unordered_mapIiNS1_10TargetDataENS3_4hashIiEENS3_8equal_toIiEENS3_9allocatorINS3_4pairIKiS5_EEEEEE",
            "__ZN8firebase9firestore3api16DocumentSnapshotC2ENSt3__110shared_ptrINS1_9FirestoreEEENS0_5model11DocumentKeyEN4absl12lts_202206238optionalINS7_8DocumentEEENS1_16SnapshotMetadataE",
            "__ZNK8firebase9firestore6remote10Serializer25EncodeListenRequestLabelsERKNS0_5local10TargetDataE",
            "__ZNK8firebase9firestore4core12ParseContext12ValidatePathEv",
            "__ZNK8firebase9firestore5local10ProtoSizer17CalculateByteSizeERKNS1_10TargetDataE",
            "__ZN8firebase9firestore4util10Filesystem9RemoveDirERKNS1_4PathE",
            "__ZN8firebase9firestore5model8NaNValueEv",
            "__ZNK8firebase9firestore5model13MutationBatch4keysEv",
            "__ZN8firebase9firestore6nanopb6Writer5WriteEPK10pb_field_sPKv",
            "__ZNK8firebase9firestore5model7Overlay4HashEv",
            "__ZN8firebase9firestore6remote11WatchStream10WatchQueryERKNS0_5local10TargetDataE",
            "__ZN8firebase9firestore4util8Schedule13ExtractLockedENSt3__116__deque_iteratorIPNS1_4TaskEPS6_RS6_PS7_lLl512EEE",
            "__ZN8firebase9firestore5local18LevelDbPersistence12bundle_cacheEv",
            "__ZNK8firebase9firestore5local10TargetData32WithLastLimboFreeSnapshotVersionENS0_5model15SnapshotVersionE",
            "__ZN8firebase9firestore5local28MemoryEagerReferenceDelegateC2EPNS1_17MemoryPersistenceE",
            "__ZNK8firebase9firestore6remote10Serializer12EncodeFilterERKNS0_4core6FilterE",
            "__ZNK8firebase9firestore6remote11RemoteStore22ShouldStartWriteStreamEv",
            "__ZN8firebase9firestore5model11ObjectValue9ParentMapERKNS1_9FieldPathE",
            "__ZN8firebase9firestore12EnumToStringENS0_33_firestore_BundledQuery_LimitTypeE",
            "__ZNK8firebase9firestore6remote10Serializer17DecodeUnaryFilterEPNS0_4util11ReadContextERKNS0_48_google_firestore_v1_StructuredQuery_UnaryFilterE",
            "__ZN8firebase9firestore4core10SyncEngineC2EPNS0_5local10LocalStoreEPNS0_6remote11RemoteStoreERKNS0_11credentials4UserEm",
            "__ZNK8firebase9firestore3api5Query33ValidateDisjunctiveFilterElementsERKNS0_26_google_firestore_v1_ValueENS0_4core11FieldFilter8OperatorE",
            "__ZNK8firebase9firestore5model14AggregateAlias11StringValueEv",
            "__ZN8firebase9firestore11credentials4UserC1ENSt3__112basic_stringIcNS3_11char_traitsIcEENS3_9allocatorIcEEEE",
            "__ZN8firebase9firestore5local22LevelDbTargetGlobalKey6DecodeEN7leveldb5SliceE",
            "__ZN8firebase9firestore5model17CompareReferencesERKNS0_26_google_firestore_v1_ValueES4_",
            "__ZNK8firebase9firestore5model11DocumentKey9CompareToERKS2_",
            "__ZN8firebase9firestore6remote21WatchChangeAggregator22TargetContainsDocumentEiRKNS0_5model11DocumentKeyE",
            "__ZNK8firebase9firestore6remote21WatchChangeAggregator25TargetDataForActiveTargetEi",
            "__ZN8firebase9firestore3api9Firestore9TerminateENSt3__18functionIFvNS0_4util6StatusEEEE",
            "__ZNK8firebase9firestore4core11NotInFilter3Rep7MatchesERKNS0_5model8DocumentE",
            "__ZN8firebase9firestore5local17LevelDbMigrations13RunMigrationsEPN7leveldb2DBEiRKNS1_15LocalSerializerE",
            "__ZN8firebase9firestore4core15FirestoreClient10InitializeERKNS0_11credentials4UserERKNS0_3api8SettingsE",
            "__ZN8firebase9firestore3api9FirestoreC1ENS0_5model10DatabaseIdENSt3__112basic_stringIcNS5_11char_traitsIcEENS5_9allocatorIcEEEENS5_10shared_ptrINS0_11credentials19CredentialsProviderINSD_9AuthTokenENSD_4UserEEEEENSC_INSE_ISB_SB_EEEENSC_INS0_4util10AsyncQueueEEENS5_10unique_ptrINS0_6remote24FirebaseMetadataProviderENS5_14default_deleteISQ_EEEEPv",
            "__ZN8firebase9firestore5local19LevelDbIndexManager19EncodeSingleElementERKNS0_26_google_firestore_v1_ValueE",
            "__ZN8firebase9firestore4util10DoubleBitsEd",
            "__ZN8firebase9firestore5model15SnapshotVersionC2ERKNS_9TimestampE",
            "__ZNK8firebase9firestore4core4View22ComputeDocumentChangesERKNS0_9immutable9SortedMapINS0_5model11DocumentKeyENS5_8DocumentENS0_4util10ComparatorIS6_EEEERKN4absl12lts_202206238optionalINS1_19ViewDocumentChangesEEE",
            "__ZN8firebase9firestore3api35SnapshotsInSyncListenerRegistrationC2ENSt3__110shared_ptrINS0_4core15FirestoreClientEEENS4_INS5_18AsyncEventListenerINS0_4util5EmptyEEEEE",
            "__ZNK8firebase9firestore5local27LevelDbDocumentOverlayCache33GetCollectionGroupIndexEntryCountEv",
            "__ZN8firebase9firestore5model11CompareMapsERKNS0_29_google_firestore_v1_MapValueES4_",
            "__ZNK8firebase9firestore6remote10Serializer13DecodeFiltersEPNS0_4util11ReadContextERNS0_43_google_firestore_v1_StructuredQuery_FilterE",
            "__ZNK8firebase9firestore5local11QueryEngine22PerformQueryUsingIndexERKNS0_4core5QueryE",
            "__ZN8firebase9firestore6remoteeqERKNS1_11WatchChangeES4_",
            "__ZN8firebase9firestore6remote6Stream8MarkIdleEv",
            "__ZN8firebase9firestore6nanopb16ByteStringWriter7ReleaseEv",
            "__ZN8firebase9firestore11credentials9AuthTokenC1Ev",
            "__ZNK8firebase9firestore5local27MemoryCollectionParentIndex10GetEntriesERKNSt3__112basic_stringIcNS3_11char_traitsIcEENS3_9allocatorIcEEEE",
            "__ZNK8firebase9firestore5model18TargetIndexMatcher25HasMatchingEqualityFilterERKNS1_7SegmentE",
            "__ZThn16_N8firebase9firestore6remote11RemoteStore27OnWriteStreamMutationResultENS0_5model15SnapshotVersionENSt3__16vectorINS3_14MutationResultENS5_9allocatorIS7_EEEE",
            "__ZN8firebase17TimestampInternal8TruncateERKNS_9TimestampE",
            "__ZNK8firebase9firestore5local15LocalSerializer21EncodeUnknownDocumentERKNS0_5model15MutableDocumentE",
            "__ZN8firebase9firestore5model11DocumentKey12FromSegmentsESt16initializer_listINSt3__112basic_stringIcNS4_11char_traitsIcEENS4_9allocatorIcEEEEE",
            "__ZN8firebase9firestore6remote21WriteStreamSerializerC2ENS1_10SerializerE",
            "__ZNK8firebase9firestore3api21MemoryEagerGcSettings4HashEv",
            "__ZN8firebase9firestore4core10SyncEngine14ReadIntoLoaderERKNS0_6bundle14BundleMetadataERNS3_12BundleReaderERNS0_3api14LoadBundleTaskE",
            "__ZN8firebase9firestore5locallsERNSt3__113basic_ostreamIcNS2_11char_traitsIcEEEERKNS1_10TargetDataE",
            "__ZNK8firebase9firestore3api5Query5CountEv",
            "__ZNK8firebase9firestore4core15CompositeFilter3Rep7MatchesERKNS0_5model8DocumentE",
            "__ZNK8firebase9firestore6remote18ExponentialBackoff10ClampDelayENSt3__16chrono8durationIxNS3_5ratioILl1ELl1000EEEEE",
            "__ZN8firebase9firestore5local27LevelDbDocumentOverlayCache12SaveOverlaysEiRKNSt3__113unordered_mapINS0_5model11DocumentKeyENS5_8MutationENS5_15DocumentKeyHashENS3_8equal_toIS6_EENS3_9allocatorINS3_4pairIKS6_S7_EEEEEE",
            "__ZN8firebase9firestore5local18LevelDbTargetCache15GetMatchingKeysEi",
            "__ZN8firebase9firestore5local10LocalStoreD2Ev",
            "__ZN8firebase9firestore5model14DeleteMutationC2ERKNS1_8MutationE",
            "__ZN8firebase9firestore5local18LevelDbPersistence23GetDocumentOverlayCacheERKNS0_11credentials4UserE",
            "__ZNK8firebase9firestore4core6Target13GetUpperBoundERKNS0_5model10FieldIndexE",
            "__ZNK8firebase9firestore3api27PersistentCacheIndexManager23EnableIndexAutoCreationEv",
            "__ZN8firebase9firestore5local18LevelDbTargetCache18RemoveMatchingKeysERKNS0_9immutable9SortedSetINS0_5model11DocumentKeyENS0_4util10ComparatorIS6_EEEEi",
            "__ZN8firebase9firestore6bundle12BundleReader16ReadLengthPrefixEv",
            "__ZN8firebase9firestore6remote11RemoteStore18OnWriteStreamCloseERKNS0_4util6StatusE",
            "__ZN8firebase9firestore5model11SetMutationC2ERKNS1_8MutationE",
            "__ZN8firebase9firestore6remote13GrpcUnaryCallC1ENSt3__110unique_ptrIN4grpc13ClientContextENS3_14default_deleteIS6_EEEENS4_INS5_25ClientAsyncResponseReaderINS5_10ByteBufferEEENS7_ISC_EEEERKNS3_10shared_ptrINS0_4util10AsyncQueueEEEPNS1_14GrpcConnectionERKSB_",
            "__ZN8firebase9firestore5local18LevelDbBundleCache14SaveNamedQueryERKNS0_6bundle10NamedQueryE",
            "__ZN8firebase9firestore4util11OrderedCode10ReadStringEPN4absl12lts_2022062311string_viewEPNSt3__112basic_stringIcNS7_11char_traitsIcEENS7_9allocatorIcEEEE",
            "__ZNK8firebase9firestore4core5Query8ToTargetERKNSt3__16vectorINS1_7OrderByENS3_9allocatorIS5_EEEE",
            "__ZN8firebase9firestore5local18LevelDbTransaction8Iterator17SyncToTransactionEv",
            "__ZN8firebase9firestore5model15MutableDocument19ConvertToNoDocumentERKNS1_15SnapshotVersionE",
            "__ZN8firebase9firestore6remote29FirebaseMetadataProviderAppleC2EP6FIRApp",
            "__ZNK8firebase9firestore5model25NumericIncrementTransform3Rep16ApplyToLocalViewERKN4absl12lts_202206238optionalINS0_26_google_firestore_v1_ValueEEERKNS_9TimestampE",
            "__ZN8firebase9firestore6remote6Stream13OnStreamStartEv",
            "__ZN8firebase9firestore5local18LevelDbPersistence18reference_delegateEv",
            "__ZN8firebase9firestore6remote8internal14BufferedWriter12EnqueueWriteEON4grpc10ByteBufferERKNS4_12WriteOptionsE",
            "__ZN8firebase9firestore5local26MemoryLruReferenceDelegate12AddReferenceERKNS0_5model11DocumentKeyE",
            "__ZN8firebase9firestore4util11OrderedCode21WriteStringDecreasingEPNSt3__112basic_stringIcNS3_11char_traitsIcEENS3_9allocatorIcEEEEN4absl12lts_2022062311string_viewE",
            "__ZN8firebase9firestore11credentials35FirebaseAppCheckCredentialsProviderD1Ev",
            "__ZNK8firebase9firestore5model11DocumentSet15GetLastDocumentEv",
            "__ZNK8firebase9firestore5model13PatchMutation3Rep8GetPatchEv",
            "__ZN8firebase9firestore5local28MemoryEagerReferenceDelegate12RemoveTargetERKNS1_10TargetDataE",
            "__ZNK8firebase9firestore4util10AsyncQueue23VerifyIsCurrentExecutorEv",
            "__ZNK8firebase9firestore5model11DocumentKey18GetCollectionGroupEv",
            "__ZNK8firebase9firestore3api5Query5EndAtENS0_4core5BoundE",
            "__ZN8firebase9firestore4util10Filesystem7DefaultEv",
            "__ZN8firebase9firestore5local20LevelDbMutationQueue5StartEv",
            "__ZN8firebase9firestore5local24LevelDbTargetDocumentKey3KeyEiRKNS0_5model11DocumentKeyE",
            "__ZN8firebase9firestore4util10LogicUtils18ComputeInExpansionERKNS0_4core6FilterE",
            "__ZNK8firebase9firestore6remote10Serializer20DecodeDocumentDeleteEPNS0_4util11ReadContextERKNS0_35_google_firestore_v1_DocumentDeleteE",
            "__ZNK8firebase9firestore5model14AggregateAlias4HashEv",
            "__ZN8firebase9firestore6remote9Datastore30CommitMutationsWithCredentialsERKNS0_11credentials9AuthTokenERKNSt3__112basic_stringIcNS7_11char_traitsIcEENS7_9allocatorIcEEEERKNS7_6vectorINS0_5model8MutationENSB_ISI_EEEEONS7_8functionIFvRKNS0_4util6StatusEEEE",
            "__ZN8firebase9firestore5local19LruGarbageCollector23QueryCountForPercentileEi",
            "__ZN8firebase9firestore6bundle12BundleReaderC1ENS1_16BundleSerializerENSt3__110unique_ptrINS0_4util10ByteStreamENS4_14default_deleteIS7_EEEE",
            "__ZNK8firebase9firestore6nanopb10ByteString4HashEv",
            "__ZNK8firebase9firestore6remote10Serializer21DecodeStructuredQueryEPNS0_4util11ReadContextEP16pb_bytes_array_sRNS0_36_google_firestore_v1_StructuredQueryE",
            "__ZN8firebase9firestore3api15MakeFIRGeoPointERKNS0_8GeoPointE",
            "__ZNK8firebase9firestore4core4View15ShouldBeInLimboERKNS0_5model11DocumentKeyE",
            "__ZNK8firebase9firestore6remote10Serializer14DecodeOrderBysEPNS0_4util11ReadContextEPNS0_42_google_firestore_v1_StructuredQuery_OrderEj",
            "__ZN8firebase9firestore4util11OrderedCode21WriteDoubleIncreasingEPNSt3__112basic_stringIcNS3_11char_traitsIcEENS3_9allocatorIcEEEEd",
            "__ZN8firebase9firestore5local18LevelDbTransaction8IteratorC2EPS2_",
            "__ZN8firebase9firestore5local19LevelDbIndexManager12EncodeValuesERKNS0_5model10FieldIndexERKNS0_4core6TargetEN4absl12lts_202206238optionalINSt3__16vectorINS0_26_google_firestore_v1_ValueENSE_9allocatorISG_EEEEEE",
            "__ZNK8firebase9firestore3api23PersistentCacheSettings13WithSizeBytesEx",
            "__ZN8firebase9firestore3apineERKNS1_19MemoryCacheSettingsES4_",
            "__ZN8firebase9firestore4util11ExecutorStd15PopFromScheduleEv",
            "__ZN8firebase9firestore3api9Firestore26AddSnapshotsInSyncListenerENSt3__110unique_ptrINS0_4core13EventListenerINS0_4util5EmptyEEENS3_14default_deleteIS9_EEEE",
            "__ZN8firebase9firestore4util4Task6CreateEPNS1_8ExecutorEONSt3__18functionIFvvEEE",
            "__ZN8firebase9firestore5local18LevelDbTransaction6CommitEv",
            "__ZNK8firebase9firestore4core19KeyFieldNotInFilter3Rep7MatchesERKNS0_5model8DocumentE",
            "__ZN8firebase9firestore3api25QueryListenerRegistrationC1ENSt3__110shared_ptrINS0_4core15FirestoreClientEEENS4_INS5_18AsyncEventListenerINS5_12ViewSnapshotEEEEENS4_INS5_13QueryListenerEEE",
            "__ZN8firebase9firestore6nanopb16ByteStringWriter7SetSizeEm",
            "__ZNK8firebase9firestore6bundle16BundleSerializer11DecodeValueERNS0_4util10JsonReaderERKN8nlohmann10basic_jsonINSt3__13mapENS8_6vectorENS8_12basic_stringIcNS8_11char_traitsIcEENS8_9allocatorIcEEEEbxydSE_NS6_14adl_serializerENSA_IhNSE_IhEEEEEE",
            "__ZNK8firebase9firestore31_firestore_client_MaybeDocument8ToStringEi",
            "__ZN8firebase9firestore5local19LruGarbageCollector13RemoveTargetsExRKNSt3__113unordered_mapIiNS1_10TargetDataENS3_4hashIiEENS3_8equal_toIiEENS3_9allocatorINS3_4pairIKiS5_EEEEEE",
            "__ZN8firebase9firestore5local18LevelDbTargetCache15TryReadMetadataEPN7leveldb2DBE",
            "__Z31FSTIncludeFSTFirestoreComponentv",
            "__ZNK8firebase9firestore6remote10Serializer23ValidateDocumentKeyPathEPNS0_4util11ReadContextERKNS0_5model12ResourcePathE",
            "__ZN8firebase9firestore4util4Task6CreateEPNS1_8ExecutorENSt3__16chrono10time_pointINS6_12steady_clockENS6_8durationIxNS5_5ratioILl1ELl1000EEEEEEEijONS5_8functionIFvvEEE",
            "__ZN8firebase9firestore5local13LevelDbOpener28RecursivelyCleanupLegacyDirsENS0_4util4PathE",
            "__ZN8firebase9firestore5local19LevelDbIndexManager21DeleteFromUpdateQueueEPNS0_5model10FieldIndexE",
            "__ZN8firebase9firestore5local15IndexBackfillerC1Ev",
            "__ZN8firebase9firestore5model15MutableDocument22ConvertToFoundDocumentERKNS1_15SnapshotVersionENS1_11ObjectValueE",
            "__ZN8firebase9firestore3api19MemoryCacheSettingsaSERKS2_",
            "__ZNK8firebase9firestore5local11QueryEngine18CreateCacheIndexesERKNS0_4core5QueryERKNS1_12QueryContextEm",
            "__ZN8firebase9firestore6remote14GrpcConnectionC2ERKNS0_4core12DatabaseInfoERKNSt3__110shared_ptrINS0_4util10AsyncQueueEEEPN4grpc15CompletionQueueEPNS1_19ConnectivityMonitorEPNS1_24FirebaseMetadataProviderE",
            "__ZN8firebase9firestore5local26LevelDbRemoteDocumentCache3AddERKNS0_5model15MutableDocumentERKNS3_15SnapshotVersionE",
            "__ZN8firebase9firestore3api14LoadBundleTask18RemoveAllObserversEv",
            "__ZN8firebase9firestore6nanopb10ByteStringC1EOS2_",
            "__ZN8firebase9firestore4util19DoubleBitwiseEqualsEdd",
            "__ZNK8firebase9firestore28_google_protobuf_StringValue8ToStringEi",
            "__ZN8firebase9firestore11credentials31FirebaseAuthCredentialsProviderD1Ev",
            "__ZN8firebase9firestore5model14MapValueEqualsERKNS0_29_google_firestore_v1_MapValueES4_",
            "__ZN8firebase9firestore4core12ParseContext12ChildContextEm",
            "__ZN8firebase9firestore6remote11RemoteStoreC2EPNS0_5local10LocalStoreENSt3__110shared_ptrINS1_9DatastoreEEERKNS7_INS0_4util10AsyncQueueEEEPNS1_19ConnectivityMonitorENS6_8functionIFvNS0_5model11OnlineStateEEEE",
            "__ZN8firebase9firestore4core15FirestoreClient17RunAggregateQueryERKNS1_5QueryERKNSt3__16vectorINS0_5model14AggregateFieldENS6_9allocatorIS9_EEEEONS6_8functionIFvRKNS0_4util8StatusOrINS8_11ObjectValueEEEEEE",
            "__ZN8firebase9firestore5model11DocumentKeyC2Ev",
            "__ZN8firebase9firestore5model11IndexOffset12FromDocumentERKNS1_8DocumentE",
            "__ZN8firebase9firestore5model8Mutation3RepC2EONS1_11DocumentKeyEONS1_12PreconditionEONSt3__16vectorINS1_14FieldTransformENS8_9allocatorISA_EEEE",
            "__ZNK8firebase9firestore6remote11RemoteStore13CanUseNetworkEv",
            "__ZN8firebase9firestore6remote14GrpcCompletion17EnsureValidFutureEv",
            "__ZNK8firebase9firestore4util4Path7DirnameEv",
            "__ZNK8firebase9firestore6remote19DatastoreSerializer19EncodeCommitRequestERKNSt3__16vectorINS0_5model8MutationENS3_9allocatorIS6_EEEE",
            "__ZN8firebase9firestore4util8Schedule5ClearEv",
            "__ZN8firebase9firestore4util11ExecutorStd6CancelEj",
            "__ZN8firebase9firestore4core5Bound9FromValueENS0_6nanopb13SharedMessageINS0_31_google_firestore_v1_ArrayValueEEEb",
            "__ZN8firebase9firestore4util19ExecutorLibdispatchC2EPU28objcproto17OS_dispatch_queue8NSObject",
            "__ZN8firebase9firestore4util11OrderedCode12TEST_CorruptEPNSt3__112basic_stringIcNS3_11char_traitsIcEENS3_9allocatorIcEEEEi",
            "__ZN8firebase9firestore5model14CompareStringsERKNS0_26_google_firestore_v1_ValueES4_",
            "__ZN8firebase9firestore5local19MemoryMutationQueue25AllMutationBatchesWithIdsERKNSt3__13setIiNS3_4lessIiEENS3_9allocatorIiEEEE",
            "__ZNK8firebase9firestore5local11QueryEngine10ApplyQueryERKNS0_4core5QueryERKNS0_9immutable9SortedMapINS0_5model11DocumentKeyENS9_8DocumentENS0_4util10ComparatorISA_EEEE",
            "__ZN8firebase9firestore5local19LruGarbageCollectorC1EPNS1_11LruDelegateENS1_9LruParamsE",
            "__ZNK8firebase9firestore5local26MemoryLruReferenceDelegate24MutationQueuesContainKeyERKNS0_5model11DocumentKeyE",
            "__ZN8firebase9firestore6remote11WriteStream21set_last_stream_tokenENS0_6nanopb10ByteStringE",
            "__ZN8firebase9firestore6remote6Stream4StopEv",
            "__ZN8firebase9firestore5model10IsMaxValueERKNS0_26_google_firestore_v1_ValueE",
            "__ZN8firebase9firestore5local16LevelDbTargetKey6DecodeEN7leveldb5SliceE",
            "__ZNK8firebase9firestore4util4Path12ToUtf8StringEv",
            "__ZNK8firebase9firestore5model13PatchMutation3Rep4HashEv",
            "__ZN8firebase9firestore4util10JsonReader13OptionalArrayEPKcRKN8nlohmann10basic_jsonINSt3__13mapENS7_6vectorENS7_12basic_stringIcNS7_11char_traitsIcEENS7_9allocatorIcEEEEbxydSD_NS5_14adl_serializerENS9_IhNSD_IhEEEEEERKNS9_ISJ_NSD_ISJ_EEEE",
            "__ZN8firebase9firestore4core16ParseAccumulator11RootContextEv",
            "__ZN8firebase9firestore5model9FieldPath20FromServerFormatViewEN4absl12lts_2022062311string_viewE",
            "__ZN8firebase9firestore6remote18OnlineStateTracker15SetAndBroadcastENS0_5model11OnlineStateE",
            "__ZN8firebase9firestore4core19ViewDocumentChangesC2ENS0_5model11DocumentSetENS1_21DocumentViewChangeSetENS0_9immutable9SortedSetINS3_11DocumentKeyENS0_4util10ComparatorIS8_EEEEb",
            "__ZNK8firebase9firestore6remote10Serializer14DecodeMutationEPNS0_4util11ReadContextERNS0_26_google_firestore_v1_WriteE",
            "__ZN8firebase9firestore4util12TestingHooks25OnExistenceFilterMismatchENSt3__18functionIFvRKNS2_27ExistenceFilterMismatchInfoEEEE",
            "__ZN8firebase9firestore5model11DocumentSetC1EONS1_18DocumentComparatorE",
            "__ZN8firebase9firestore6remote6Stream5StartEv",
            "__ZN8firebase9firestore4core15FirestoreClient23ScheduleIndexBackfillerEv",
            "__ZN8firebase9firestore5local10LocalStore18SetLastStreamTokenERKNS0_6nanopb10ByteStringE",
            "__ZN8firebase9firestore4core15CompositeFilterC1ERKNS1_6FilterE",
            "__ZN8firebase9firestore5local13LevelDbOpenerC2ENS0_4core12DatabaseInfoEPNS0_4util10FilesystemE",
            "__ZN8firebase9firestore4util10JsonReader14OptionalDoubleEPKcRKN8nlohmann10basic_jsonINSt3__13mapENS7_6vectorENS7_12basic_stringIcNS7_11char_traitsIcEENS7_9allocatorIcEEEEbxydSD_NS5_14adl_serializerENS9_IhNSD_IhEEEEEEd",
            "__ZN8firebase9firestore5modellsERNSt3__113basic_ostreamIcNS2_11char_traitsIcEEEERKNS1_15MutableDocumentE",
            "__ZN8firebase9firestore5local18LevelDbPersistenceD2Ev",
            "__ZN8firebase9firestore5local18LevelDbTargetCache12RemoveTargetERKNS1_10TargetDataE",
            "__ZN8firebase9firestore5model17UpperBoundCompareERKNS0_26_google_firestore_v1_ValueEbS4_b",
            "__ZNK8firebase9firestore5model15MutableDocument8ToStringEv",
            "__ZN8firebase9firestore8GeoPointC1Edd",
            "__ZN8firebase9firestore4util14MakeTargetTimeENSt3__16chrono8durationIxNS2_5ratioILl1ELl1000EEEEE",
            "__ZNK8firebase9firestore3api5Query17ValidateNewFilterERKNS0_4core6FilterE",
            "__ZN8firebase9firestore4core16KeyFieldInFilter28ExtractDocumentKeysFromValueERKNS0_26_google_firestore_v1_ValueE",
            "__ZN8firebase9firestore5local17MemoryTargetCache24EnumerateSequenceNumbersERKNSt3__18functionIFvxEEE",
            "__ZN8firebase9firestore4util17internal_statusor6Helper26HandleInvalidStatusCtorArgEPNS1_6StatusE",
            "__ZN8firebase9firestore6nanopb10ByteStringaSERKS2_",
            "__ZN8firebase9firestore5model8Mutation24CalculateOverlayMutationERKNS1_15MutableDocumentERKN4absl12lts_202206238optionalINS1_9FieldMaskEEE",
            "__ZN8firebase9firestore4util11OrderedCode30ReadStringOrInfinityDecreasingEPN4absl12lts_2022062311string_viewEPNSt3__112basic_stringIcNS7_11char_traitsIcEENS7_9allocatorIcEEEEPb",
            "__ZN8firebase9firestore6remote9Datastore17CreateWriteStreamEPNS1_19WriteStreamCallbackE",
            "__ZN8firebase9firestore5local18LevelDbMutationKey6DecodeEN4absl12lts_2022062311string_viewE",
            "__ZNK8firebase9firestore3api19CollectionReference4HashEv",
            "__ZN8firebase9firestore5model11ObjectValue3SetERKNS1_9FieldPathENS0_6nanopb7MessageINS0_26_google_firestore_v1_ValueEEE",
            "__ZN8firebase9firestore5local22LevelDbTargetGlobalKey3KeyEv",
            "__ZN8firebase9firestore5local17MemoryTargetCache8ContainsERKNS0_5model11DocumentKeyE",
            "__ZN8firebase9firestore6remote10Serializer13EncodeVersionERKNS0_5model15SnapshotVersionE",
            "__ZN8firebase9firestore6remote11RemoteStore17RunAggregateQueryERKNS0_4core5QueryERKNSt3__16vectorINS0_5model14AggregateFieldENS7_9allocatorISA_EEEEONS7_8functionIFvRKNS0_4util8StatusOrINS9_11ObjectValueEEEEEE",
            "__ZN8firebase9firestore6remote11RemoteStore16StartWriteStreamEv",
            "__ZN8firebase9firestore5modellsERNSt3__113basic_ostreamIcNS2_11char_traitsIcEEEERKNS1_11DocumentSetE",
            "__ZNK8firebase9firestore39_google_firestore_v1_Target_QueryTarget8ToStringEi",
            "__ZNK8firebase9firestore5local15IndexBackfiller30WriteEntriesForCollectionGroupEPKNS1_10LocalStoreERKNSt3__112basic_stringIcNS6_11char_traitsIcEENS6_9allocatorIcEEEEi",
            "__ZNK8firebase9firestore6remote10Serializer20EncodeFieldTransformERKNS0_5model14FieldTransformE",
            "__ZN8firebase9firestore5local18LevelDbTargetCache15AddMatchingKeysERKNS0_9immutable9SortedSetINS0_5model11DocumentKeyENS0_4util10ComparatorIS6_EEEEi",
            "__ZN8firebase9firestore5local30LevelDbOverlayMigrationManager3RunEv",
            "__ZNK8firebase9firestore5local27LevelDbLruReferenceDelegate23current_sequence_numberEv",
            "__ZN8firebase9firestore5local18LevelDbTargetCache12DecodeTargetEN4absl12lts_2022062311string_viewE",
            "__ZN8firebase9firestore5model25NumericIncrementTransformC1ERKNS1_18TransformOperationE",
            "__ZN8firebase9firestore5local20LevelDbMutationQueue18AllMutationBatchesEv",
            "__ZN8firebase9firestore6remote21WatchChangeAggregator11ResetTargetEi",
            "__ZNK8firebase9firestore3api8Settings20local_cache_settingsEv",
            "__ZN8firebase9firestore5model11ObjectValue6DeleteERKNS1_9FieldPathE",
            "__ZN8firebase9firestore6remote13ConvertStatusERKN4grpc6StatusE",
            "__ZNK8firebase9firestore6remote10Serializer21DecodeCompositeFilterEPNS0_4util11ReadContextERKNS0_52_google_firestore_v1_StructuredQuery_CompositeFilterE",
            "__ZN8firebase9firestore4core15CompositeFilterC2ERKNS1_6FilterE",
            "__ZN8firebase9firestore5local19MemoryMutationQueue19LookupMutationBatchEi",
            "__ZN8firebase9firestore3api12MakeGeoPointEP11FIRGeoPoint",
            "__ZN8firebase9firestore3api9FirestoreC2ENS0_5model10DatabaseIdENSt3__112basic_stringIcNS5_11char_traitsIcEENS5_9allocatorIcEEEENS5_10shared_ptrINS0_11credentials19CredentialsProviderINSD_9AuthTokenENSD_4UserEEEEENSC_INSE_ISB_SB_EEEENSC_INS0_4util10AsyncQueueEEENS5_10unique_ptrINS0_6remote24FirebaseMetadataProviderENS5_14default_deleteISQ_EEEEPv",
            "__ZNK8firebase9firestore5model11DocumentSet11ContainsKeyERKNS1_11DocumentKeyE",
            "__ZN8firebase9firestore6remote11RemoteStoreC1EPNS0_5local10LocalStoreENSt3__110shared_ptrINS1_9DatastoreEEERKNS7_INS0_4util10AsyncQueueEEEPNS1_19ConnectivityMonitorENS6_8functionIFvNS0_5model11OnlineStateEEEE",
            "__ZN8firebase9firestore4util10IsEmptyDirERKNS1_4PathE",
            "__ZN8firebase9firestore5local13LevelDbOpener14LevelDbDataDirEv",
            "__ZN8firebase9firestore4core11Transaction6CommitEONSt3__18functionIFvNS0_4util6StatusEEEE",
            "__ZN8firebase9firestore5local27LevelDbLruReferenceDelegate23RemoveOrphanedDocumentsEx",
            "__ZN8firebase9firestore5model11SetMutation3RepC2EONS1_11DocumentKeyEONS1_11ObjectValueEONS1_12PreconditionEONSt3__16vectorINS1_14FieldTransformENSA_9allocatorISC_EEEE",
            "__ZN8firebase9firestore4core4View17ApplyTargetChangeERKN4absl12lts_202206238optionalINS0_6remote12TargetChangeEEE",
            "__ZNK8firebase9firestore35_google_firestore_v1_CommitResponse8ToStringEi",
            "__ZN8firebase9firestore5local24LevelDbDocumentTargetKey6DecodeEN4absl12lts_2022062311string_viewE",
            "__ZN8firebase9firestore5local19LevelDbIndexManager21DeleteAllFieldIndexesEv",
            "__ZNK8firebase9firestore5local27LevelDbDocumentOverlayCache15GetOverlayCountEv",
            "__ZN8firebase9firestore5model11ObjectValueC1ENS0_6nanopb7MessageINS0_26_google_firestore_v1_ValueEEE",
            "__ZNK8firebase9firestore5model11DocumentSet6insertERKN4absl12lts_202206238optionalINS1_8DocumentEEE",
            "__ZN8firebase9firestore5local10ProtoSizerC1ENS1_15LocalSerializerE",
            "__ZNK8firebase9firestore6remote11RemoteStore22GetTargetDataForTargetEi",
            "__ZN8firebase9firestore3api9Firestore6clientEv",
            "__ZN8firebase9firestore5local19LevelDbIndexManager18UpdateIndexEntriesERKNS0_9immutable9SortedMapINS0_5model11DocumentKeyENS5_8DocumentENS0_4util10ComparatorIS6_EEEE",
            "__ZN8firebase9firestore5local26MemoryLruReferenceDelegateC2EPNS1_17MemoryPersistenceENS1_9LruParamsENSt3__110unique_ptrINS1_5SizerENS6_14default_deleteIS8_EEEE",
            "__ZNK8firebase9firestore3api19MemoryLruGcSettings13WithSizeBytesEx",
            "__ZN8firebase9firestore5local19LruGarbageCollector27SequenceNumberForQueryCountEi",
            "__ZN8firebase9firestore6remote11WriteStream16NotifyStreamOpenEv",
            "__ZN8firebase9firestore6remote9Datastore14IsAbortedErrorERKNS0_4util6StatusE",
            "__ZN8firebase9firestore4util19ExecutorLibdispatch7ExecuteEONSt3__18functionIFvvEEE",
            "__ZNK8firebase9firestore5model14VerifyMutation3Rep8ToStringEv",
            "__ZN8firebase9firestore5modellsERNSt3__113basic_ostreamIcNS2_11char_traitsIcEEEERKNS1_15SnapshotVersionE",
            "__ZN8firebase9firestore5model11ObjectValueC2ERKS2_",
            "__ZN8firebase9firestore6nanopb12StringWriter7ReleaseEv",
            "__ZN8firebase9firestore6remote6Stream14OnStreamFinishERKNS0_4util6StatusE",
            "__ZN8firebase9firestore4core11Transaction24CreateUpdatePreconditionERKNS0_5model11DocumentKeyE",
            "__ZN8firebase9firestore6remote9DatastoreC2ERKNS0_4core12DatabaseInfoERKNSt3__110shared_ptrINS0_4util10AsyncQueueEEENS8_INS0_11credentials19CredentialsProviderINSE_9AuthTokenENSE_4UserEEEEENS8_INSF_INS7_12basic_stringIcNS7_11char_traitsIcEENS7_9allocatorIcEEEESP_EEEEPNS1_19ConnectivityMonitorEPNS1_24FirebaseMetadataProviderE",
            "__ZNK8firebase9firestore5model15SnapshotVersion4HashEv",
            "__ZN8firebase17TimestampInternal28FromUntrustedSecondsAndNanosExi",
            "__ZN8firebase9firestore5local19LevelDbIndexManager16DeleteFieldIndexERKNS0_5model10FieldIndexE",
            "__ZN8firebase9firestore5local10TargetDataC1ENS0_4core6TargetEixNS1_12QueryPurposeE",
            "__ZN8firebase9firestore5local24LevelDbTargetDocumentKey9KeyPrefixEv",
            "__ZNK8firebase9firestore3api19CollectionReference4pathEv",
            "__ZN8firebase9firestore5local18LevelDbTargetCacheC2EPNS1_18LevelDbPersistenceEPNS1_15LocalSerializerE",
            "__ZNK8firebase9Timestamp8ToStringEv",
            "__ZNK8firebase9firestore4util11ExecutorStd13IsIdScheduledEj",
            "__ZNK8firebase9firestore5local15LocalSerializer12EncodeBundleERKNS0_6bundle14BundleMetadataE",
            "__ZNK8firebase9firestore6remote11RemoteStore22GetRemoteKeysForTargetEi",
            "__ZN8firebase9firestore5local26MemoryLruReferenceDelegateC1EPNS1_17MemoryPersistenceENS1_9LruParamsENSt3__110unique_ptrINS1_5SizerENS6_14default_deleteIS8_EEEE",
            "__ZN8firebase9firestore6nanopb16ByteStringWriter6AppendEPKvm",
            "__ZNK8firebase9firestore3api17DocumentReference11document_idEv",
            "__ZNK8firebase9firestore33_google_firestore_v1_TargetChange8ToStringEi",
            "__ZN8firebase9firestore6bundle12BundleLoader12ApplyChangesEv",
            "__ZNK8firebase9firestore42_google_firestore_v1_CreateDocumentRequest8ToStringEi",
            "__ZN8firebase9firestore6remote21WriteStreamSerializerC1ENS1_10SerializerE",
            "__ZN8firebase9firestore3api13QuerySnapshotC2ENSt3__110shared_ptrINS1_9FirestoreEEENS0_4core5QueryEONS7_12ViewSnapshotENS1_16SnapshotMetadataE",
            "__ZNK8firebase9firestore3api19CollectionReference8DocumentEv",
            "__ZNK8firebase9firestore6remote21WriteStreamSerializer21DecodeMutationResultsEPNS0_6nanopb6ReaderERNS0_34_google_firestore_v1_WriteResponseE",
            "__ZN8firebase9firestore6nanopb10ByteStringC1EN4absl12lts_2022062311string_viewE",
            "__ZN8firebase9firestore5local11QueryEngine10InitializeEPNS1_18LocalDocumentsViewE",
            "__ZNK8firebase9firestore5model11ObjectValue11ToFieldMaskEv",
            "__ZN8firebase9firestore5local18LevelDbTransaction8Iterator9IsDeletedEN7leveldb5SliceE",
            "__ZN8firebase9firestore5local18LevelDbTransaction3PutENSt3__112basic_stringIcNS3_11char_traitsIcEENS3_9allocatorIcEEEES9_",
            "__ZN8firebase9firestore5local19MemoryMutationQueue32AllMutationBatchesAffectingQueryERKNS0_4core5QueryE",
            "__ZN8firebase9firestore5local17MemoryTargetCache12RemoveTargetERKNS1_10TargetDataE",
            "__ZN8firebase9firestore5local20LevelDbMutationQueue18SetLastStreamTokenENS0_6nanopb10ByteStringE",
            "__ZN8firebase9firestore4util13LogIsLoggableENS1_8LogLevelE",
            "__ZN8firebase9firestore4util4TaskC2EPNS1_8ExecutorENSt3__16chrono10time_pointINS6_12steady_clockENS6_8durationIxNS5_5ratioILl1ELl1000EEEEEEEijONS5_8functionIFvvEEE",
            "__ZN8firebase9firestore3api9Firestore21SetIndexConfigurationERKNSt3__112basic_stringIcNS3_11char_traitsIcEENS3_9allocatorIcEEEERKNS3_8functionIFvNS0_4util6StatusEEEE",
            "__ZNK8firebase9firestore5local26MemoryDocumentOverlayCache15GetOverlayCountEv",
            "__ZN8firebase9firestore3api9Firestore14RunTransactionENSt3__18functionIFvNS3_10shared_ptrINS0_4core11TransactionEEENS4_IFvNS0_4util6StatusEEEEEEESC_i",
            "__ZN8firebase9firestore5model12ResourcePath10FromStringERKNSt3__112basic_stringIcNS3_11char_traitsIcEENS3_9allocatorIcEEEE",
            "__ZN8firebase9firestore3api14LoadBundleTask15SetLastObserverENSt3__18functionIFvNS1_22LoadBundleTaskProgressEEEE",
            "__ZN8firebase9firestore4core15FirestoreClient29RemoveSnapshotsInSyncListenerERKNSt3__110shared_ptrINS1_13EventListenerINS0_4util5EmptyEEEEE",
            "__ZN8firebase9firestore5localeqERKNS1_20DocumentKeyReferenceES4_",
            "__ZN8firebase9firestore5model9FieldPath12KeyFieldPathEv",
            "__ZNO8firebase9firestore4core13ParsedSetData10ToMutationERKNS0_5model11DocumentKeyERKNS3_12PreconditionE",
            "__ZNK8firebase9firestore6remote14GrpcConnection13CreateChannelEv",
            "__ZN8firebase9firestore5local18MemoryIndexManager5StartEv",
            "__ZN8firebase9firestore6nanopb10ByteStringC2EPKvm",
            "__ZNK8firebase9firestore4core13QueryListener16ShouldRaiseEventERKNS1_12ViewSnapshotE",
            "__ZNK8firebase9firestore3api27PersistentCacheIndexManager21DeleteAllFieldIndexesEv",
            "__ZN8firebase9firestore5local18LevelDbTransaction8Iterator10AdvanceLDBEv",
            "__ZN8firebase9firestore5local17MemoryTargetCacheC1EPNS1_17MemoryPersistenceE",
            "__ZN8firebase9firestore4util12TestingHooks31NotifyOnExistenceFilterMismatchERKNS2_27ExistenceFilterMismatchInfoE",
            "__ZNK8firebase9firestore11credentials9AuthToken5tokenEv",
            "__ZN8firebase9firestore5local20LevelDbIndexStateKey9KeyPrefixEv",
            "__ZNK8firebase9firestore6remote10Serializer31DecodeVersionFromListenResponseEPNS0_4util11ReadContextERKNS0_35_google_firestore_v1_ListenResponseE",
            "__ZNK8firebase9firestore30_firestore_client_TargetGlobal8ToStringEi",
            "__ZN8firebase9firestore4util4Task17ExecuteAndReleaseEv",
            "__ZN8firebase9firestore5local18LevelDbBundleCacheC1EPNS1_18LevelDbPersistenceEPNS1_15LocalSerializerE",
            "__ZNK8firebase9firestore5index10IndexEntry8ToStringEv",
            "__ZN8firebase9firestore5local27LevelDbLruReferenceDelegate12AddReferenceERKNS0_5model11DocumentKeyE",
            "__ZN8firebase9firestore5local18LevelDbMutationKey3KeyEN4absl12lts_2022062311string_viewEi",
            "__ZNK8firebase9firestore42_google_firestore_v1_StructuredQuery_Order8ToStringEi",
            "__ZNK8firebase9firestore5local18LocalDocumentsView26RecalculateAndSaveOverlaysERKNS0_9immutable9SortedSetINS0_5model11DocumentKeyENS0_4util10ComparatorIS6_EEEE",
            "__ZN8firebase9firestore4util10AsyncQueue6CreateENSt3__110unique_ptrINS1_8ExecutorENS3_14default_deleteIS5_EEEE",
            "__ZN8firebase9firestore6remote21WatchChangeAggregator20HandleDocumentChangeERKNS1_19DocumentWatchChangeE",
            "__ZNK8firebase9firestore5model11ObjectValue4HashEv",
            "__ZN8firebase9firestore3api27PersistentCacheIndexManagerC1ENSt3__110shared_ptrINS0_4core15FirestoreClientEEE",
            "__ZN8firebase9firestore5local19LevelDbIndexManager13UpdateEntriesERKNS0_5model8DocumentERKNS3_10FieldIndexERKNSt3__13setINS0_5index10IndexEntryENSA_4lessISD_EENSA_9allocatorISD_EEEESK_",
            "__ZN8firebase9firestore4util6Status18moved_from_messageEv",
            "__ZN8firebase9firestore5local18LevelDbTargetCache8ContainsERKNS0_5model11DocumentKeyE",
            "__ZN8firebase9firestore5local10LocalStore23PopulateDocumentChangesERKNSt3__113unordered_mapINS0_5model11DocumentKeyENS5_15MutableDocumentENS5_15DocumentKeyHashENS3_8equal_toIS6_EENS3_9allocatorINS3_4pairIKS6_S7_EEEEEERKNS4_IS6_NS5_15SnapshotVersionES8_SA_NSB_INSC_ISD_SJ_EEEEEERKSJ_",
            "__ZN8firebase9firestore5local18MemoryIndexManager13AddFieldIndexERKNS0_5model10FieldIndexE",
            "__ZN8firebase9firestore5local18LocalDocumentsView23GetLocalViewOfDocumentsERKNS0_9immutable9SortedMapINS0_5model11DocumentKeyENS5_15MutableDocumentENS0_4util10ComparatorIS6_EEEERKNS3_9SortedSetIS6_SA_EE",
            "__ZN8firebase9firestore5local27MemoryCollectionParentIndex3AddERKNS0_5model12ResourcePathE",
            "__ZNK8firebase9firestore5model8Mutation21ApplyToRemoteDocumentERNS1_15MutableDocumentERKNS1_14MutationResultE",
            "__ZNK8firebase9firestore6remote10Serializer14EncodeOrderBysERKNSt3__16vectorINS0_4core7OrderByENS3_9allocatorIS6_EEEE",
            "__ZN8firebase9firestore4core10SyncEngine28TriggerPendingWriteCallbacksEi",
            "__ZN8firebase9firestore4util17DirectoryIterator6CreateERKNS1_4PathE",
            "__ZN8firebase9firestore5model9FieldPath22FromDotSeparatedStringERKNSt3__112basic_stringIcNS3_11char_traitsIcEENS3_9allocatorIcEEEE",
            "__ZN8firebase9firestore5model11ObjectValue15FromFieldsEntryEPNS0_41_google_firestore_v1_Document_FieldsEntryEj",
            "__ZN8firebase9firestore6remote10Serializer15EncodeTimestampERKNS_9TimestampE",
            "__ZN8firebase9firestore6remote18OnlineStateTracker21ClearOnlineStateTimerEv",
            "__ZNK8firebase9firestore4core5Query15IsDocumentQueryEv",
            "__ZNK8firebase9firestore4core6Target11CanonicalIdEv",
            "__ZN8firebase9firestore4util10AsyncQueue4WrapERKNSt3__18functionIFvvEEE",
            "__ZN8firebase9firestore6remote11WatchStream17NotifyStreamCloseERKNS0_4util6StatusE",
            "__ZN8firebase9firestore5local10LocalStore16AcknowledgeBatchERKNS0_5model19MutationBatchResultE",
            "__ZNK8firebase9firestore52_google_firestore_v1_StructuredQuery_CompositeFilter8ToStringEi",
            "__ZN8firebase9firestore4util10MakeStringEPK10__CFString",
            "__ZN8firebase9firestore5modeleqERKNS1_15MutableDocumentES4_",
            "__ZN8firebase9firestore4util10Filesystem8ReadFileERKNS1_4PathE",
            "__ZThn16_N8firebase9firestore6remote11RemoteStore17OnWriteStreamOpenEv",
            "__ZN8firebase9firestore5local26MemoryLruReferenceDelegate23RemoveMutationReferenceERKNS0_5model11DocumentKeyE",
            "__ZN8firebase9firestore5local18LevelDbPersistence21remote_document_cacheEv",
            "__ZN8firebase9firestore4util10JsonReader13RequiredArrayEPKcRKN8nlohmann10basic_jsonINSt3__13mapENS7_6vectorENS7_12basic_stringIcNS7_11char_traitsIcEENS7_9allocatorIcEEEEbxydSD_NS5_14adl_serializerENS9_IhNSD_IhEEEEEE",
            "__ZNK8firebase9firestore6bundle16BundleSerializer14DecodeMapValueERNS0_4util10JsonReaderERKN8nlohmann10basic_jsonINSt3__13mapENS8_6vectorENS8_12basic_stringIcNS8_11char_traitsIcEENS8_9allocatorIcEEEEbxydSE_NS6_14adl_serializerENSA_IhNSE_IhEEEEEE",
            "__ZN8firebase9firestore5local19MemoryMutationQueue18GetLastStreamTokenEv",
            "__ZN8firebase9firestore5local10LocalStoreC2EPNS1_11PersistenceEPNS1_11QueryEngineERKNS0_11credentials4UserE",
            "__ZN8firebase9firestore6remote21WatchChangeAggregator12RemoveTargetEi",
            "__ZNK8firebase9firestore4core12ParseContext16FieldDescriptionEv",
            "__ZN8firebase9firestore5local17MemoryPersistenceD0Ev",
            "__ZN8firebase9firestore5local18LevelDbTransaction6DeleteEN4absl12lts_2022062311string_viewE",
            "__ZN8firebase9firestore5local10LocalStore14CollectGarbageEPNS1_19LruGarbageCollectorE",
            "__ZN8firebase9firestore5local19LevelDbIndexManager21EncodedDirectionalKeyERKNS0_5model10FieldIndexERKNS3_11DocumentKeyE",
            "__ZN8firebase9firestore5local25MemoryRemoteDocumentCacheC2EPNS1_17MemoryPersistenceE",
            "__ZN8firebase9firestore6remote19GrpcStreamingReaderC2ENSt3__110unique_ptrIN4grpc13ClientContextENS3_14default_deleteIS6_EEEENS4_INS5_23ClientAsyncReaderWriterINS5_10ByteBufferESB_EENS7_ISC_EEEERKNS3_10shared_ptrINS0_4util10AsyncQueueEEEPNS1_14GrpcConnectionERKSB_",
            "__ZNK8firebase9firestore28_google_protobuf_UInt32Value8ToStringEi",
            "__ZN8firebase9firestore4core12EventManager15OnViewSnapshotsEONSt3__16vectorINS1_12ViewSnapshotENS3_9allocatorIS5_EEEE",
            "__ZN8firebase9firestore4core12ViewSnapshot20FromInitialDocumentsENS1_5QueryENS0_5model11DocumentSetENS0_9immutable9SortedSetINS4_11DocumentKeyENS0_4util10ComparatorIS8_EEEEbbb",
            "__ZN8firebase9firestore4util6StatusC1ENS0_5ErrorENSt3__112basic_stringIcNS4_11char_traitsIcEENS4_9allocatorIcEEEE",
            "__ZN8firebase9firestore6remote11WatchStream16NotifyStreamOpenEv",
            "__ZN8firebase9firestore6remote21WatchStreamSerializerC1ENS1_10SerializerE",
            "__ZN8firebase9firestore4core15FirestoreClient20WaitForPendingWritesENSt3__18functionIFvNS0_4util6StatusEEEE",
            "__ZN8firebase9firestore5local18MemoryIndexManager12GetIndexTypeERKNS0_4core6TargetE",
            "__ZNK8firebase9firestore3api5Query22ValidateNewFieldFilterERKNS0_4core5QueryERKNS3_11FieldFilterE",
            "__ZNK8firebase9firestore48_google_firestore_v1_StructuredQuery_UnaryFilter8ToStringEi",
            "__ZN8firebase9firestore4core11Transaction3SetERKNS0_5model11DocumentKeyEONS1_13ParsedSetDataE",
            "__ZN8firebase9firestore5local12ReferenceSet16RemoveReferencesEi",
            "__ZN8firebase9firestore5model24ServerTimestampTransformC1Ev",
            "__ZN8firebase9firestore5local18LevelDbTransaction19DefaultWriteOptionsEv",
            "__ZN8firebase9firestore5local18LevelDbTargetCache30RemoveQueryTargetKeyForTargetsERKNSt3__113unordered_setIiNS3_4hashIiEENS3_8equal_toIiEENS3_9allocatorIiEEEE",
            "__ZNK8firebase9firestore5model18TargetIndexMatcher13MatchesFilterERKN4absl12lts_202206238optionalINS0_4core11FieldFilterEEERKNS1_7SegmentE",
            "__ZNK8firebase9firestore5local27LevelDbDocumentOverlayCache28GetCollectionIndexEntryCountEv",
            "__ZNK8firebase9firestore5model14ArrayTransform3Rep5ApplyERKN4absl12lts_202206238optionalINS0_26_google_firestore_v1_ValueEEE",
            "__ZN8firebase9firestore4util10JsonReader12OptionalBoolEPKcRKN8nlohmann10basic_jsonINSt3__13mapENS7_6vectorENS7_12basic_stringIcNS7_11char_traitsIcEENS7_9allocatorIcEEEEbxydSD_NS5_14adl_serializerENS9_IhNSD_IhEEEEEEb",
            "__ZNK8firebase9firestore48_google_firestore_v1_TransactionOptions_ReadOnly8ToStringEi",
            "__ZN8firebase9firestore3api19MemoryCacheSettings34WithMemoryGarbageCollectorSettingsERKNS1_30MemoryGargabeCollectorSettingsE",
            "__ZN8firebase9firestore5model11DocumentKeyC1ERKNS1_12ResourcePathE",
            "__ZN8firebase9firestore4core6Filter3RepC2Ev",
            "__ZN8firebase9firestore5local18LevelDbPersistence17CalculateByteSizeEv",
            "__ZN8firebase9firestore4core17TransactionRunnerC2ERKNSt3__110shared_ptrINS0_4util10AsyncQueueEEEPNS0_6remote11RemoteStoreENS3_8functionIFvNS4_INS1_11TransactionEEENSD_IFvNS5_6StatusEEEEEEESI_i",
            "__ZN8firebase9firestore11credentials31FirebaseAuthCredentialsProviderD2Ev",
            "__ZN8firebase9firestore6remote10GrpcStream9WriteLastEON4grpc10ByteBufferE",
            "__ZN8firebase9firestore6remote11RemoteStore19OnWatchStreamChangeERKNS1_11WatchChangeERKNS0_5model15SnapshotVersionE",
            "__ZN8firebase9firestore5local19MemoryMutationQueue17CalculateByteSizeERKNS1_5SizerE",
            "__ZNK8firebase9firestore3api16DocumentSnapshot15CreateReferenceEv",
            "__ZN8firebase9firestore5local32LevelDbRemoteDocumentReadTimeKey3KeyERKNS0_5model12ResourcePathENS3_15SnapshotVersionEN4absl12lts_2022062311string_viewE",
            "__ZN8firebase9firestore4corelsERNSt3__113basic_ostreamIcNS2_11char_traitsIcEEEERKNS1_6FilterE",
            "__ZN8firebase9firestore5local24LevelDbTargetDocumentKey9KeyPrefixEi",
            "__ZNK8firebase9firestore5local26MemoryLruReferenceDelegate24IsPinnedAtSequenceNumberExRKNS0_5model11DocumentKeyE",
            "__ZN8firebase9firestore4util4Task7ReleaseEv",
            "__ZN8firebase9firestore5model11ArrayEqualsERKNS0_31_google_firestore_v1_ArrayValueES4_",
            "__ZN8firebase9firestore5local19MemoryMutationQueue18SetLastStreamTokenENS0_6nanopb10ByteStringE",
            "__ZN8firebase9firestore5local17MemoryBundleCache18SaveBundleMetadataERKNS0_6bundle14BundleMetadataE",
            "__ZNK8firebase9firestore5model13PatchMutation3Rep8ToStringEv",
            "__ZNK8firebase9firestore4core9Direction11CanonicalIdEv",
            "__ZN8firebase9firestore5local18LevelDbTransaction18DefaultReadOptionsEv",
            "__ZN8firebase9firestore5local20LevelDbMutationQueueC2ERKNS0_11credentials4UserEPNS1_18LevelDbPersistenceEPNS1_12IndexManagerEPNS1_15LocalSerializerE",
            "__ZN8firebase9firestore5local26MemoryLruReferenceDelegate22OnTransactionCommittedEv",
            "__ZNK8firebase9firestore4core12ViewSnapshot4HashEv",
            "__ZNK8firebase9firestore4core15FirestoreClient13is_terminatedEv",
            "__ZN8firebase9firestore5local10LocalStore10SaveBundleERKNS0_6bundle14BundleMetadataE",
            "__ZNK8firebase9firestore5model25NumericIncrementTransform3Rep6EqualsERKNS1_18TransformOperation3RepE",
            "__ZN8firebase9firestore6remote13GrpcUnaryCall15FinishAndNotifyERKNS0_4util6StatusE",
            "__ZN8firebase9firestore3apieqERKNS1_19MemoryCacheSettingsES4_",
            "__ZNK8firebase9firestore36_google_firestore_v1_StructuredQuery8ToStringEi",
            "__ZN8firebase9firestore4core13ParsedSetDataC1ENS0_5model11ObjectValueENSt3__16vectorINS3_14FieldTransformENS5_9allocatorIS7_EEEE",
            "__ZN8firebase9firestore4core10SyncEngine10NotifyUserEiNS0_4util6StatusE",
            "__ZN8firebase9firestore3api35SnapshotsInSyncListenerRegistration6RemoveEv",
            "__ZNK8firebase9firestore5model18TargetIndexMatcher13MatchesFilterERKNS0_4core11FieldFilterERKNS1_7SegmentE",
            "__ZNK8firebase9firestore5model14ArrayTransform3Rep8ToStringEv",
            "__ZN8firebase9firestore6remote11RemoteStore18OnWatchStreamCloseERKNS0_4util6StatusE",
            "__ZNK8firebase9firestore5local10TargetData8ToStringEv",
            "__ZN8firebase9firestore5local10LocalStore14HasNewerBundleERKNS0_6bundle14BundleMetadataE",
            "__ZN8firebase9firestore5local18LevelDbBundleCache18SaveBundleMetadataERKNS0_6bundle14BundleMetadataE",
            "__ZNK8firebase9firestore4core15CompositeFilter3Rep6IsFlatEv",
            "__ZN8firebase9firestore6bundle12BundleLoader23GetQueryDocumentMappingEv",
            "__ZN8firebase9firestore3api14AggregateQuery12GetAggregateEONSt3__18functionIFvRKNS0_4util8StatusOrINS0_5model11ObjectValueEEEEEE",
            "__ZNK8firebase9firestore55_google_firestore_v1_StructuredQuery_CollectionSelector8ToStringEi",
            "__ZNK8firebase9firestore5local10LocalStore21DeleteAllFieldIndexesEv",
            "__ZN8firebase9firestore11credentials35FirebaseAppCheckCredentialsProviderC1EP6FIRAppPU29objcproto18FIRAppCheckInterop11objc_object",
            "__ZNK8firebase9firestore4core18DocumentViewChange8documentEv",
            "__ZN8firebase9firestore6remote14GrpcConnection18UseTestCertificateERKNSt3__112basic_stringIcNS3_11char_traitsIcEENS3_9allocatorIcEEEERKNS0_4util4PathESB_",
            "__ZNK8firebase9firestore3api8Settings4HashEv",
            "__ZN8firebase9firestore4coreeqERKNS1_19LimboDocumentChangeES4_",
            "__ZNK8firebase9firestore4core5Query8ToStringEv",
            "__ZN8firebase9firestore5local18LevelDbTransaction8Iterator4NextEv",
            "__ZN8firebase9firestore5model12CompareBlobsERKNS0_26_google_firestore_v1_ValueES4_",
            "__ZNK8firebase9firestore3api13QuerySnapshot15ForEachDocumentERKNSt3__18functionIFvNS1_16DocumentSnapshotEEEE",
            "__ZNK8firebase9firestore3api19MemoryLruGcSettings4HashEv",
            "__ZN8firebase9firestore5model15MutableDocument10NoDocumentENS1_11DocumentKeyERKNS1_15SnapshotVersionE",
            "__ZN8firebase9firestore5model13PatchMutation3RepC2EONS1_11DocumentKeyEONS1_11ObjectValueEONS1_9FieldMaskEONS1_12PreconditionEONSt3__16vectorINS1_14FieldTransformENSC_9allocatorISE_EEEE",
            "__ZN8firebase9firestore6remote10Serializer15DecodeFieldMaskEPNS0_4util11ReadContextERKNS0_33_google_firestore_v1_DocumentMaskE",
            "__ZNK8firebase9firestore6remote10Serializer12DecodeFilterEPNS0_4util11ReadContextERNS0_43_google_firestore_v1_StructuredQuery_FilterE",
            "__ZN8firebase9firestore5model8MinValueEv",
            "__ZN8firebase9firestore3api5Query19AddSnapshotListenerENS0_4core13ListenOptionsEONSt3__110unique_ptrINS3_13EventListenerINS1_13QuerySnapshotEEENS5_14default_deleteIS9_EEEE",
            "__ZN8firebase9firestore5local26LevelDbCollectionParentKey3KeyEN4absl12lts_2022062311string_viewERKNS0_5model12ResourcePathE",
            "__ZN8firebase9firestore6remote21WatchStreamSerializerC2ENS1_10SerializerE",
            "__ZN8firebase9firestore4util19ExecutorLibdispatch15ExecuteBlockingEONSt3__18functionIFvvEEE",
            "__ZNK8firebase9firestore4util19ExecutorLibdispatch19CurrentExecutorNameEv",
            "__ZN8firebase9firestore6remote11RemoteStore30OnWriteStreamHandshakeCompleteEv",
            "__ZNK8firebase9firestore3api8Settings10gc_enabledEv",
            "__ZNK8firebase9firestore38_google_firestore_v1_DocumentTransform8ToStringEi",
            "__ZN8firebase9firestore3api5Query12GetDocumentsENS1_6SourceEONSt3__110unique_ptrINS0_4core13EventListenerINS1_13QuerySnapshotEEENS4_14default_deleteIS9_EEEE",
            "__ZN8firebase9firestore5local26MemoryLruReferenceDelegate23RemoveOrphanedDocumentsEx",
            "__ZN8firebase9firestore3api27PersistentCacheIndexManagerC2ENSt3__110shared_ptrINS0_4core15FirestoreClientEEE",
            "__ZN8firebase9firestore5local26LevelDbDocumentMutationKey3KeyEN4absl12lts_2022062311string_viewERKNS0_5model11DocumentKeyEi",
            "__ZNK8firebase9firestore5local15LocalSerializer16DecodeNamedQueryEPNS0_6nanopb6ReaderERNS0_21_firestore_NamedQueryE",
            "__ZN8firebase9firestore5local13ConvertStatusERKN7leveldb6StatusE",
            "__ZN8firebase9firestore3api14LoadBundleTask14UpdateProgressENS1_22LoadBundleTaskProgressE",
            "__ZN8firebase9firestore4util5ThrowENS1_13ExceptionTypeEPKcS4_iRKNSt3__112basic_stringIcNS5_11char_traitsIcEENS5_9allocatorIcEEEE",
            "__ZN8firebase9firestore5local13LevelDbOpener25FirestoreLegacyAppDataDirEv",
            "__ZNK8firebase9firestore28_google_protobuf_DoubleValue8ToStringEi",
            "__ZN8firebase9firestore6remote6Stream14InhibitBackoffEv",
            "__ZN8firebase9firestore3api14AggregateQueryC2ENS1_5QueryEONSt3__16vectorINS0_5model14AggregateFieldENS4_9allocatorIS7_EEEE",
            "__ZN8firebase9firestore4util10LogicUtils23IsDisjunctiveNormalFormERKNS0_4core6FilterE",
            "__ZN8firebase9firestore11credentials35FirebaseAppCheckCredentialsProvider27SetCredentialChangeListenerENSt3__18functionIFvNS3_12basic_stringIcNS3_11char_traitsIcEENS3_9allocatorIcEEEEEEE",
            "__ZN8firebase9firestore5model14ArrayTransformC2ENS1_18TransformOperation4TypeENS0_6nanopb7MessageINS0_31_google_firestore_v1_ArrayValueEEE",
            "__ZNK8firebase9firestore4util10ComparatorIdE7CompareEdd",
            "__ZNK8firebase9firestore5model11ObjectValue3GetEv",
            "__ZNK8firebase9firestore3api17DocumentReference4HashEv",
            "__ZN8firebase9firestore4core19KeyFieldNotInFilterC1ERKNS0_5model9FieldPathENS0_6nanopb13SharedMessageINS0_26_google_firestore_v1_ValueEEE",
            "__ZNK8firebase9firestore36_google_firestore_v1_ExistenceFilter8ToStringEi",
            "__ZNK8firebase9firestore6remote13GrpcUnaryCall18GetResponseHeadersEv",
            "__ZN8firebase9firestore4util19ExecutorLibdispatchD2Ev",
            "__ZN8firebase9firestore5local26LevelDbRemoteDocumentCache15SetIndexManagerEPNS1_12IndexManagerE",
            "__ZN8firebase9firestore5local18LevelDbPersistence19current_transactionEv",
            "__ZN8firebase9firestore6nanopblsERNSt3__113basic_ostreamIcNS2_11char_traitsIcEEEERKNS1_10ByteStringE",
            "__ZN8firebase9firestore4util15ByteStreamApple4ReadEm",
            "__ZN8firebase9firestore4core12ViewSnapshotC1ENS1_5QueryENS0_5model11DocumentSetES5_NSt3__16vectorINS1_18DocumentViewChangeENS6_9allocatorIS8_EEEENS0_9immutable9SortedSetINS4_11DocumentKeyENS0_4util10ComparatorISE_EEEEbbbb",
            "__ZN8firebase9firestore4core18DocumentViewChangeC1ENS0_5model8DocumentENS2_4TypeE",
            "__ZN8firebase9firestore5local40LevelDbDocumentOverlayCollectionIndexKey6DecodeEN4absl12lts_2022062311string_viewE",
            "__ZN8firebase9firestore6remote9Datastore17CreateWatchStreamEPNS1_19WatchStreamCallbackE",
            "__ZNK8firebase9firestore22_google_protobuf_Empty8ToStringEi",
            "__ZN8firebase9firestore4util11OrderedCode18ReadTrailingStringEPN4absl12lts_2022062311string_viewEPNSt3__112basic_stringIcNS7_11char_traitsIcEENS7_9allocatorIcEEEE",
            "__ZN8firebase9firestore5local10LocalStore15GetFieldIndexesEv",
            "__ZN8firebase9firestore5model11DocumentKey5EmptyEv",
            "__ZN8firebase9firestore5model11ObjectValueC2ENS0_6nanopb7MessageINS0_26_google_firestore_v1_ValueEEE",
            "__ZN8firebase9firestore5model17GetLocalWriteTimeERKNS0_26_google_firestore_v1_ValueE",
            "__ZNK8firebase9firestore5model11DocumentSet4HashEv",
            "__ZN8firebase9firestore5local17MemoryPersistence21remote_document_cacheEv",
            "__ZNK8firebase9firestore41_google_firestore_v1_Document_FieldsEntry8ToStringEi",
            "__ZNK8firebase9firestore43_google_firestore_admin_v1_Index_IndexField8ToStringEi",
            "__ZNK8firebase9firestore6remote11BloomFilter8IsBitSetEi",
            "__ZNK8firebase9firestore4core15FirestoreClient27SetIndexAutoCreationEnabledEb",
            "__ZN8firebase9firestore5model14VerifyMutationC1ERKNS1_8MutationE",
            "__ZN8firebase9firestore11credentials31FirebaseAuthCredentialsProviderC2EP6FIRAppPU25objcproto14FIRAuthInterop11objc_object",
            "__ZNK8firebase9firestore6remote11RemoteStore22ShouldStartWatchStreamEv",
            "__ZN8firebase9firestore6remote9Datastore13PollGrpcQueueEv",
            "__ZN8firebase9firestore4core10SyncEngineC1EPNS0_5local10LocalStoreEPNS0_6remote11RemoteStoreERKNS0_11credentials4UserEm",
            "__ZThn8_N8firebase9firestore6remote19GrpcStreamingReader13OnStreamStartEv",
            "__ZN8firebase9firestore5local44LevelDbDocumentOverlayLargestBatchIdIndexKey3KeyEN4absl12lts_2022062311string_viewEiRKNS0_5model11DocumentKeyE",
            "__ZN8firebase9firestore3api17DocumentReference19AddSnapshotListenerENS0_4core13ListenOptionsEONSt3__110unique_ptrINS3_13EventListenerINS1_16DocumentSnapshotEEENS5_14default_deleteIS9_EEEE",
            "__ZN8firebase9firestore4core11FieldFilterC1ERKNS1_6FilterE",
            "__ZNK8firebase9firestore53_google_firestore_v1_DocumentTransform_FieldTransform8ToStringEi",
            "__ZN8firebase9firestore6remote11RemoteStore16SendWatchRequestERKNS0_5local10TargetDataE",
            "__ZNK8firebase9firestore5index10IndexEntry9SuccessorEv",
            "__ZThn8_N8firebase9firestore6remote19GrpcStreamingReader14OnStreamFinishERKNS0_4util6StatusE",
            "__ZN8firebase9firestore11credentials31FirebaseAuthCredentialsProvider8GetTokenENSt3__18functionIFvNS0_4util8StatusOrINS1_9AuthTokenEEEEEE",
            "__ZN8firebase9firestore4util11OrderedCode19WriteTrailingStringEPNSt3__112basic_stringIcNS3_11char_traitsIcEENS3_9allocatorIcEEEEN4absl12lts_2022062311string_viewE",
            "__ZN8firebase9firestore5local10TargetDataC2ENS0_4core6TargetEixNS1_12QueryPurposeENS0_5model15SnapshotVersionES7_NS0_6nanopb10ByteStringEN4absl12lts_202206238optionalIiEE",
            "__ZNK8firebase9firestore6bundle16BundleSerializer11DecodeWhereERNS0_4util10JsonReaderERKN8nlohmann10basic_jsonINSt3__13mapENS8_6vectorENS8_12basic_stringIcNS8_11char_traitsIcEENS8_9allocatorIcEEEEbxydSE_NS6_14adl_serializerENSA_IhNSE_IhEEEEEE",
            "__ZNK8firebase9firestore5model11DocumentSet16GetFirstDocumentEv",
            "__ZNK8firebase9firestore6bundle16BundleSerializer20DecodeBundleMetadataERNS0_4util10JsonReaderERKN8nlohmann10basic_jsonINSt3__13mapENS8_6vectorENS8_12basic_stringIcNS8_11char_traitsIcEENS8_9allocatorIcEEEEbxydSE_NS6_14adl_serializerENSA_IhNSE_IhEEEEEE",
            "__ZN8firebase9firestore4util10LogicUtils46IsDisjunctionOfFieldFiltersAndFlatConjunctionsERKNS0_4core6FilterE",
            "__ZNK8firebase9firestore4core9Direction7ApplyToENS0_4util16ComparisonResultE",
            "__ZN8firebase9firestore6remote21WatchChangeAggregator26RecordPendingTargetRequestEi",
            "__ZNK8firebase9firestore4util19ExecutorLibdispatch14IsTagScheduledEi",
            "__ZNK8firebase9firestore4core5Query15WithLimitToLastEi",
            "__ZN8firebase9firestore5local18LevelDbTransaction8Iterator13UpdateCurrentEv",
            "__ZN8firebase9firestore5local18LocalDocumentsView25GetDocumentsMatchingQueryERKNS0_4core5QueryERKNS0_5model11IndexOffsetE",
            "__ZNK8firebase9firestore5local11QueryEngine25ExecuteFullCollectionScanERKNS0_4core5QueryERN4absl12lts_202206238optionalINS1_12QueryContextEEE",
            "__ZN8firebase9firestore3apieqERKNS1_18LocalCacheSettingsES4_",
            "__ZN8firebase9firestore4core10SyncEngine20AssertCallbackExistsEN4absl12lts_2022062311string_viewE",
            "__ZN8firebase9firestore5local17MemoryTargetCacheC2EPNS1_17MemoryPersistenceE",
            "__ZNK8firebase9firestore16_google_api_Http8ToStringEi",
            "__ZNK8firebase9firestore5local18MemoryIndexManager12GetMinOffsetERKNSt3__112basic_stringIcNS3_11char_traitsIcEENS3_9allocatorIcEEEE",
            "__ZN8firebase9firestore3api9Firestore13GetCollectionERKNSt3__112basic_stringIcNS3_11char_traitsIcEENS3_9allocatorIcEEEE",
            "__ZNK8firebase9firestore5local20DocumentKeyReference4ById7CompareERKS2_S5_",
            "__ZNK8firebase9firestore4core5Query4HashEv",
            "__ZN8firebase9firestore4util4Task11AwaitLockedERNSt3__111unique_lockINS3_5mutexEEE",
            "__ZNK8firebase9firestore26_google_protobuf_BoolValue8ToStringEi",
            "__ZNK8firebase9firestore5model14DeleteMutation3Rep16ApplyToLocalViewERNS1_15MutableDocumentEN4absl12lts_202206238optionalINS1_9FieldMaskEEERKNS_9TimestampE",
            "__ZNK8firebase9firestore6remote10Serializer25EncodeFieldFilterOperatorENS0_4core11FieldFilter8OperatorE",
            "__ZNK8firebase9firestore32_google_firestore_v1_WriteResult8ToStringEi",
            "__ZNK8firebase9firestore5model12ResourcePath15CanonicalStringEv",
            "__ZNK8firebase9firestore5local19LevelDbIndexManager15GetFieldIndexesERKNSt3__112basic_stringIcNS3_11char_traitsIcEENS3_9allocatorIcEEEE",
            "__ZN8firebase9firestore5local26LevelDbCollectionParentKey6DecodeEN4absl12lts_2022062311string_viewE",
            "__ZN8firebase9firestore6remote16ByteBufferWriterC2Ev",
            "__ZNK8firebase9firestore5model11DocumentSet8ToStringEv",
            "__ZN8firebase9firestore4corelsERNSt3__113basic_ostreamIcNS2_11char_traitsIcEEEERKNS1_7OrderByE",
            "__ZNK8firebase9firestore4core5Query10ComparatorEv",
            "__ZNK8firebase9firestore6remote10Serializer9EncodeKeyERKNS0_5model11DocumentKeyE",
            "__ZN8firebase9firestore5modeleqERKNS1_8MutationES4_",
            "__ZN8firebase9firestore5local18LevelDbPersistenceC2ENSt3__110unique_ptrIN7leveldb2DBENS3_14default_deleteIS6_EEEENS0_4util4PathENS3_3setINS3_12basic_stringIcNS3_11char_traitsIcEENS3_9allocatorIcEEEENS3_4lessISI_EENSG_ISI_EEEENS1_15LocalSerializerERKNS1_9LruParamsE",
            "__ZNK8firebase9firestore5local27LevelDbDocumentOverlayCache10GetOverlayERKNS0_5model11DocumentKeyE",
            "__ZN8firebase9firestore6remote11RemoteStore18ProcessTargetErrorERKNS1_17WatchTargetChangeE",
            "__ZN8firebase9firestore5local28LevelDbIndexConfigurationKey3KeyEiN4absl12lts_2022062311string_viewE",
            "__ZNKR8firebase9firestore4core5Query8ToTargetEv",
            "__ZN8firebase9firestore5local10LocalStore12ReadDocumentERKNS0_5model11DocumentKeyE",
            "__ZNK8firebase9firestore4util10AsyncQueue11IsScheduledENS1_7TimerIdE",
            "__ZNK8firebase9firestore4util8Schedule5emptyEv",
            "__ZN8firebase9firestore5local21LoadNextBatchIdFromDbEPN7leveldb2DBE",
            "__ZN8firebase9firestore4core12DatabaseInfoC1ENS0_5model10DatabaseIdENSt3__112basic_stringIcNS5_11char_traitsIcEENS5_9allocatorIcEEEESB_b",
            "__ZN8firebase9firestore5local24LevelDbRemoteDocumentKey9KeyPrefixERKNS0_5model12ResourcePathE",
            "__ZN8firebase9firestore5local26LevelDbDocumentMutationKey9KeyPrefixEN4absl12lts_2022062311string_viewERKNS0_5model12ResourcePathE",
            "__ZN8firebase9firestore5model11SetMutationC1ENS1_11DocumentKeyENS1_11ObjectValueENS1_12PreconditionE",
            "__ZN8firebase9firestore5model10SortFieldsERNS0_31_google_firestore_v1_ArrayValueE",
            "__ZNK8firebase9firestore6bundle16BundleSerializer17DecodeFieldFilterERNS0_4util10JsonReaderERKN8nlohmann10basic_jsonINSt3__13mapENS8_6vectorENS8_12basic_stringIcNS8_11char_traitsIcEENS8_9allocatorIcEEEEbxydSE_NS6_14adl_serializerENSA_IhNSE_IhEEEEEE",
            "__ZN8firebase9firestore5local17MemoryPersistenceC1Ev",
            "__ZNK8firebase9firestore5local10LocalStore23ShouldPersistTargetDataERKNS1_10TargetDataES5_RKNS0_6remote12TargetChangeE",
            "__ZN8firebase9firestore4util10AsyncQueueD2Ev",
            "__ZN8firebase9firestore4util19ExecutorLibdispatchD0Ev",
            "__ZNK8firebase9firestore5local15LocalSerializer16DecodeTargetDataEPNS0_6nanopb6ReaderERNS0_24_firestore_client_TargetE",
            "__ZN8firebase9firestore5local10LocalStore16ApplyRemoteEventERKNS0_6remote11RemoteEventE",
            "__ZNK8firebase9firestore3api5Query16ParseFieldFilterERKNS0_5model9FieldPathENS0_4core11FieldFilter8OperatorENS0_6nanopb13SharedMessageINS0_26_google_firestore_v1_ValueEEERKNSt3__18functionIFNSE_12basic_stringIcNSE_11char_traitsIcEENSE_9allocatorIcEEEEvEEE",
            "__ZNK8firebase9firestore6remote10Serializer18IsLocalDocumentKeyEN4absl12lts_2022062311string_viewE",
            "__ZN8firebase9firestore11credentials4UserC1Ev",
            "__ZNK8firebase9firestore26_google_firestore_v1_Value8ToStringEi",
            "__ZN8firebase9firestore3api9Firestore16ClearPersistenceENSt3__18functionIFvNS0_4util6StatusEEEE",
            "__ZN8firebase9firestore5local27LevelDbDocumentOverlayCache24RemoveOverlaysForBatchIdEi",
            "__ZN8firebase9firestore6remote13GrpcUnaryCall15MaybeUnregisterEv",
            "__ZNK8firebase9firestore4core12ParseContext5writeEv",
            "__ZNK8firebase9firestore4util10AsyncQueue21VerifySequentialOrderEv",
            "__ZN8firebase9firestore3apieqERKNS1_5QueryES4_",
            "__ZNK8firebase9firestore51_google_firestore_v1_StructuredQuery_FieldReference8ToStringEi",
            "__ZN8firebase9firestore5model19MutationBatchResultC2ENS1_13MutationBatchENS1_15SnapshotVersionENSt3__16vectorINS1_14MutationResultENS5_9allocatorIS7_EEEENS0_6nanopb10ByteStringE",
            "__ZN8firebase9firestore5local19LevelDbIndexManager19CreateTargetIndexesERKNS0_4core6TargetE",
            "__ZN8firebase9firestore5model10DatabaseId8FromNameERKNSt3__112basic_stringIcNS3_11char_traitsIcEENS3_9allocatorIcEEEE",
            "__ZNK8firebase9firestore63_google_firestore_v1_StructuredAggregationQuery_Aggregation_Sum8ToStringEi",
            "__ZN8firebase9firestore4util10LogicUtils11GetDnfTermsERKNS0_4core15CompositeFilterE",
            "__ZN8firebase9firestore4util10Filesystem10RemoveFileERKNS1_4PathE",
            "__ZN8firebase9firestore5local12ReferenceSet15RemoveReferenceERKNS0_5model11DocumentKeyEi",
            "__ZN8firebase9firestore5model13PatchMutationC1ENS1_11DocumentKeyENS1_11ObjectValueENS1_9FieldMaskENS1_12PreconditionENSt3__16vectorINS1_14FieldTransformENS7_9allocatorIS9_EEEE",
            "__ZN8firebase9firestore4core11FieldFilter3RepC1ENS0_5model9FieldPathENS2_8OperatorENS0_6nanopb13SharedMessageINS0_26_google_firestore_v1_ValueEEE",
            "__ZN8firebase9firestore5local19LruGarbageCollector23RemoveOrphanedDocumentsEx",
            "__ZNK8firebase9firestore4util8Schedule4sizeEv",
            "__ZN8firebase9firestore5local13LevelDbOpener6CreateERKNS1_9LruParamsE",
            "__ZNK8firebase9firestore23_google_protobuf_Struct8ToStringEi",
            "__ZNK8firebase9firestore4core5Bound17CompareToDocumentERKNSt3__16vectorINS1_7OrderByENS3_9allocatorIS5_EEEERKNS0_5model8DocumentE",
            "__ZNK8firebase9firestore5model10FieldIndex15GetArraySegmentEv",
            "__ZN8firebase9firestore4core11Transaction6DeleteERKNS0_5model11DocumentKeyE",
            "__ZNK8firebase9firestore4core11Transaction19IsPermanentlyFailedEv",
            "__ZNK8firebase9firestore46_google_firestore_v1_ListenRequest_LabelsEntry8ToStringEi",
            "__ZN8firebase9firestore6remote19GrpcStreamingReader12OnStreamReadERKN4grpc10ByteBufferE",
            "__ZN8firebase9firestore5local10LocalStore21ApplyBundledDocumentsERKNS0_9immutable9SortedMapINS0_5model11DocumentKeyENS5_15MutableDocumentENS0_4util10ComparatorIS6_EEEERKNSt3__112basic_stringIcNSE_11char_traitsIcEENSE_9allocatorIcEEEE",
            "__ZN8firebase9firestore6nanopb8internal8ToStringEP16pb_bytes_array_s",
            "__ZNK8firebase9firestore6remote6Stream13EnsureOnQueueEv",
            "__ZN8firebase9firestore5local18LevelDbPersistence11RunInternalEN4absl12lts_2022062311string_viewENSt3__18functionIFvvEEE",
            "__ZN8firebase9firestore5local17MemoryPersistence25WithEagerGarbageCollectorEv",
            "__ZN8firebase9firestore5modellsERNSt3__113basic_ostreamIcNS2_11char_traitsIcEEEERKNS1_18TransformOperationE",
            "__ZN8firebase9firestore4util17internal_statusor6Helper5CrashERKNS1_6StatusE",
            "__ZN8firebase9firestore5model14DeleteMutationC2ENS1_11DocumentKeyENS1_12PreconditionE",
            "__ZN8firebase9firestore5local19LevelDbIndexManager26AddToCollectionParentIndexERKNS0_5model12ResourcePathE",
            "__ZN8firebase9firestore5local23LevelDbDataMigrationKey3KeyEN4absl12lts_2022062311string_viewE",
            "__ZN8firebase9firestore5model14CanonifyObjectERKNS0_26_google_firestore_v1_ValueE",
            "__ZN8firebase9firestore5local24LevelDbRemoteDocumentKey3KeyERKNS0_5model11DocumentKeyE",
            "__ZN8firebase9firestore12EnumToStringENS0_26_google_protobuf_NullValueE",
            "__ZN8firebase9firestore3api9FirestoreD2Ev",
            "__ZN8firebase9firestore6remote11TargetState17UpdateResumeTokenENS0_6nanopb10ByteStringE",
            "__ZN8firebase9firestore6remote10GrpcStream4ReadEv",
            "__ZN8firebase9firestore6nanopb12StringReaderC2ERKNSt3__16vectorIhNS3_9allocatorIhEEEE",
            "__ZN8firebase9firestore6remote11RemoteStore23CleanUpWatchStreamStateEv",
            "__ZN8firebase9firestore3api14AggregateQueryC1ENS1_5QueryEONSt3__16vectorINS0_5model14AggregateFieldENS4_9allocatorIS7_EEEE",
            "__ZN8firebase9firestore5local10LocalStore14SaveNamedQueryERKNS0_6bundle10NamedQueryERKNS0_9immutable9SortedSetINS0_5model11DocumentKeyENS0_4util10ComparatorISA_EEEE",
            "__ZN8firebase9firestore12EnumToStringENS0_43_google_firestore_admin_v1_Index_QueryScopeE",
            "__ZN8firebase9firestore6remote9Datastore16IsPermanentErrorERKNS0_4util6StatusE",
            "__ZN8firebase9firestore5local19MemoryMutationQueue19RemoveMutationBatchERKNS0_5model13MutationBatchE",
            "__ZN8firebase9firestore5local10TargetDataC1ENS0_4core6TargetEixNS1_12QueryPurposeENS0_5model15SnapshotVersionES7_NS0_6nanopb10ByteStringEN4absl12lts_202206238optionalIiEE",
            "__ZN8firebase9firestore5local19MemoryMutationQueue5StartEv",
            "__ZN8firebase9firestore3apieqERKNS1_30MemoryGargabeCollectorSettingsES4_",
            "__ZN8firebase9firestore6remote19GrpcStreamingReader13OnStreamStartEv",
            "__ZNK8firebase9firestore5local28MemoryEagerReferenceDelegate23current_sequence_numberEv",
            "__ZNK8firebase9firestore5model8Mutation3Rep4HashEv",
            "__ZN8firebase9firestore6remote13GrpcUnaryCall8ShutdownEv",
            "__ZNK8firebase9firestore5model10FieldIndex22GetDirectionalSegmentsEv",
            "__ZN8firebase9firestore4util4TaskC1EPNS1_8ExecutorENSt3__16chrono10time_pointINS6_12steady_clockENS6_8durationIxNS5_5ratioILl1ELl1000EEEEEEEijONS5_8functionIFvvEEE",
            "__ZNK8firebase9firestore6remote10Serializer13DecodeOrderByEPNS0_4util11ReadContextERKNS0_42_google_firestore_v1_StructuredQuery_OrderE",
            "__ZN8firebase9firestore5local19LevelDbIndexManagerC1ERKNS0_11credentials4UserEPNS1_18LevelDbPersistenceEPNS1_15LocalSerializerE",
            "__ZN8firebase9firestore5modellsERNSt3__113basic_ostreamIcNS2_11char_traitsIcEEEERKNS1_14MutationResultE",
            "__ZN8firebase9firestore4core15FirestoreClientC2ERKNS1_12DatabaseInfoENSt3__110shared_ptrINS0_11credentials19CredentialsProviderINS8_9AuthTokenENS8_4UserEEEEENS7_INS9_INS6_12basic_stringIcNS6_11char_traitsIcEENS6_9allocatorIcEEEESJ_EEEENS7_INS0_4util8ExecutorEEENS7_INSM_10AsyncQueueEEENS6_10unique_ptrINS0_6remote24FirebaseMetadataProviderENS6_14default_deleteIST_EEEE",
            "__ZN8firebase9firestore5model14ArrayTransformC2ERKNS1_18TransformOperationE",
            "__ZN8firebase9firestore3api8SettingsaSERKS2_",
            "__ZN8firebase9firestore5local28MemoryEagerReferenceDelegate12AddReferenceERKNS0_5model11DocumentKeyE",
            "__ZNK8firebase9firestore36_google_firestore_v1_RunQueryRequest8ToStringEi",
            "__ZN8firebase9firestore5model18TargetIndexMatcherC2ERKNS0_4core6TargetE",
            "__ZNK8firebase9firestore6remote10Serializer20DecodeFieldTransformEPNS0_4util11ReadContextERNS0_53_google_firestore_v1_DocumentTransform_FieldTransformE",
            "__ZN8firebase9firestore6remote11TargetState17AddDocumentChangeERKNS0_5model11DocumentKeyENS0_4core18DocumentViewChange4TypeE",
            "__ZNK8firebase9firestore3api14AggregateQuery4HashEv",
            "__ZN8firebase9firestore4core10SyncEngine17RemoveLimboTargetERKNS0_5model11DocumentKeyE",
            "__ZN8firebase9firestore5local26LevelDbRemoteDocumentCache6RemoveERKNS0_5model11DocumentKeyE",
            "__ZN8firebase9firestore4core15FirestoreClientD1Ev",
            "__ZN8firebase9firestore6remoteeqERKNS1_11BloomFilterES4_",
            "__ZN8firebase9firestore5model11SetMutation3RepC1EONS1_11DocumentKeyEONS1_11ObjectValueEONS1_12PreconditionEONSt3__16vectorINS1_14FieldTransformENSA_9allocatorISC_EEEE",
            "__ZN8firebase9firestore5model17CompareTimestampsERKNS0_26_google_protobuf_TimestampES4_",
            "__ZNK8firebase9firestore5local10LocalStore8BackfillEv",
            "__ZN8firebase9firestore5local18MemoryIndexManager12GetMinOffsetERKNS0_4core6TargetE",
            "__ZNK8firebase9firestore6remote11BloomFilter12MightContainEN4absl12lts_2022062311string_viewE",
            "__ZNK8firebase9firestore3api8Settings16cache_size_bytesEv",
            "__ZNK8firebase9firestore5model11ObjectValue3GetERKNS1_9FieldPathE",
            "__ZNK8firebase9firestore5local26MemoryDocumentOverlayCache11GetOverlaysEN4absl12lts_2022062311string_viewEim",
            "__ZN8firebase9firestore5local32LevelDbRemoteDocumentReadTimeKey6DecodeEN4absl12lts_2022062311string_viewE",
            "__ZNK8firebase9firestore4core15CompositeFilter3Rep6EqualsERKNS1_6Filter3RepE",
            "__ZNK8firebase9firestore5local20DocumentKeyReference4HashEv",
            "__ZN8firebase9firestore5local27LevelDbLruReferenceDelegate15AddInMemoryPinsEPNS1_12ReferenceSetE",
            "__ZN8firebase9firestore4core10SyncEngine16TrackLimboChangeERKNS1_19LimboDocumentChangeE",
            "__ZN8firebase9firestore5local27LevelDbDocumentOverlayCacheC2ERKNS0_11credentials4UserEPNS1_18LevelDbPersistenceEPNS1_15LocalSerializerE",
            "__ZN8firebase9firestore4util6Status12SlowCopyFromEPKNS2_5StateE",
            "__ZN8firebase9firestore5local24LevelDbDocumentTargetKey11SentinelKeyERKNS0_5model11DocumentKeyE",
            "__ZN8firebase9firestore3apieqERKNS1_8SettingsES4_",
            "__ZN8firebase9firestore6remote11WriteStream14WriteMutationsERKNSt3__16vectorINS0_5model8MutationENS3_9allocatorIS6_EEEE",
            "__ZN8firebase9firestore6nanopb14CopyBytesArrayEPK16pb_bytes_array_s",
            "__ZN8firebase9firestore4core19LimboDocumentChangeC2ENS2_4TypeENS0_5model11DocumentKeyE",
            "__ZN8firebase9firestore6remote18ExponentialBackoff18GetDelayWithJitterEv",
            "__ZN8firebase9firestore4util4Bits18Log2Floor_PortableEj",
            "__ZNK8firebase9firestore5model14ArrayTransform3Rep6EqualsERKNS1_18TransformOperation3RepE",
            "__ZN8firebase9firestore4core18DocumentViewChangeC2ENS0_5model8DocumentENS2_4TypeE",
            "__ZNK8firebase9firestore4core4View7CompareERKNS0_5model8DocumentES6_",
            "__ZNK8firebase9firestore5local10TargetData4HashEv",
            "__ZN8firebase9firestore6remote16ByteBufferReader4ReadEPK10pb_field_sPv",
            "__ZN8firebase9firestore3api5QueryC2ENS0_4core5QueryENSt3__110shared_ptrINS1_9FirestoreEEE",
            "__ZN8firebase9firestore5local26MemoryLruReferenceDelegate17garbage_collectorEv",
            "__ZN8firebase9firestore5local10LocalStore31GetHighestUnacknowledgedBatchIdEv",
            "__ZN8firebase9firestore4util15SetThrowHandlerEPFvNS1_13ExceptionTypeEPKcS4_iRKNSt3__112basic_stringIcNS5_11char_traitsIcEENS5_9allocatorIcEEEEE",
            "__ZN8firebase9firestore4util11OrderedCode17ReadNumIncreasingEPN4absl12lts_2022062311string_viewEPy",
            "__ZN8firebase9firestore6nanopb12StringReader4ReadEPK10pb_field_sPv",
            "__ZN8firebase9firestore3api10WriteBatch10UpdateDataERKNS1_17DocumentReferenceEONS0_4core16ParsedUpdateDataE",
            "__ZNK8firebase9firestore5model8Mutation3Rep6EqualsERKS3_",
            "__ZN8firebase9firestore5model11IndexOffset4NoneEv",
            "__ZN8firebase9firestore6remote11WriteStream14WriteHandshakeEv",
            "__ZNK8firebase9firestore5local15LocalSerializer16EncodeTargetDataERKNS1_10TargetDataE",
            "__ZNK8firebase9firestore8GeoPoint8ToStringEv",
            "__ZN8firebase9firestore6remote14GrpcCompletionC2ENS2_4TypeERKNSt3__110shared_ptrINS0_4util10AsyncQueueEEEONS4_8functionIFvbRKNS5_IS2_EEEEE",
            "__ZN8firebase9firestore5model14FieldTransformC2ENS1_9FieldPathENS1_18TransformOperationE",
            "__ZNK8firebase9firestore6bundle16BundleSerializer22DecodeDocumentMetadataERNS0_4util10JsonReaderERKN8nlohmann10basic_jsonINSt3__13mapENS8_6vectorENS8_12basic_stringIcNS8_11char_traitsIcEENS8_9allocatorIcEEEEbxydSE_NS6_14adl_serializerENSA_IhNSE_IhEEEEEE",
            "__ZNK8firebase9firestore6remote6Stream9IsStartedEv",
            "__ZN8firebase9firestore5index15WriteIndexValueERKNS0_26_google_firestore_v1_ValueEPNS1_27DirectionalIndexByteEncoderE",
            "__ZNK8firebase9firestore6remote10GrpcStream18GetResponseHeadersEv",
            "__ZN8firebase9firestore5local28MemoryEagerReferenceDelegateC1EPNS1_17MemoryPersistenceE",
            "__ZN8firebase9firestore5local27LevelDbLruReferenceDelegate14RemoveSentinelERKNS0_5model11DocumentKeyE",
            "__ZN8firebase9firestore5local27LevelDbLruReferenceDelegate5StartEv",
            "__ZNK8firebase9firestore3api10WriteBatch18VerifyNotCommittedEv",
            "__ZN8firebase9firestore6remote18ExponentialBackoffC2ERKNSt3__110shared_ptrINS0_4util10AsyncQueueEEENS5_7TimerIdE",
            "__ZN8firebase9firestore5local36LevelDbIndexEntryDocumentKeyIndexKey3KeyEv",
            "__ZN8firebase9firestore5local17LevelDbMigrations17ReadSchemaVersionEPN7leveldb2DBE",
            "__ZNK8firebase9firestore4core15CompositeFilter3Rep23FindFirstMatchingFilterERKNSt3__18functionIFbRKNS1_11FieldFilterEEEE",
            "__ZNK8firebase9firestore4util11ExecutorStd4NameEv",
            "__ZNK8firebase9firestore6remote11WriteStream17last_stream_tokenEv",
            "__ZNK8firebase9firestore42_google_firestore_v1_ListDocumentsResponse8ToStringEi",
            "__ZNK8firebase9firestore48_google_firestore_v1_RunAggregationQueryResponse8ToStringEi",
            "__ZN8firebase9firestore6remote11WriteStream8TearDownEPNS1_10GrpcStreamE",
            "__ZN8firebase9firestore5local18LevelDbTransaction8ToStringEv",
            "__ZN8firebase9firestore5local27LevelDbLruReferenceDelegateC1EPNS1_18LevelDbPersistenceENS1_9LruParamsE",
            "__ZN8firebase9firestore5model8Mutation3RepC2EONS1_11DocumentKeyEONS1_12PreconditionE",
            "__ZNK8firebase9firestore5local25MemoryRemoteDocumentCache6GetAllERKNS0_9immutable9SortedSetINS0_5model11DocumentKeyENS0_4util10ComparatorIS6_EEEE",
            "__ZN8firebase9firestore5local18LevelDbTransaction8IteratorC1EPS2_",
            "__ZN8firebase9firestore5model13CanonifyArrayERKNS0_31_google_firestore_v1_ArrayValueE",
            "__ZN8firebase9firestore5model19MutationBatchResultC1ENS1_13MutationBatchENS1_15SnapshotVersionENSt3__16vectorINS1_14MutationResultENS5_9allocatorIS7_EEEENS0_6nanopb10ByteStringE",
            "__ZNK8firebase9firestore4core11Transaction10GetVersionERKNS0_5model11DocumentKeyE",
            "__ZNK8firebase9firestore34_firestore_BundledDocumentMetadata8ToStringEi",
            "__ZN8firebase9firestore5model21EncodeServerTimestampERKNS_9TimestampEN4absl12lts_202206238optionalINS0_26_google_firestore_v1_ValueEEE",
            "__ZN8firebase9firestore5local18MemoryIndexManager26AddToCollectionParentIndexERKNS0_5model12ResourcePathE",
            "__ZN8firebase9firestore5local15IndexBackfiller17WriteIndexEntriesEPKNS1_10LocalStoreE",
            "__ZN8firebase9firestore4util4TaskD1Ev",
            "__ZN8firebase9firestore4util11ExecutorStdC2Ei",
            "__ZN8firebase9firestore6nanopb8internal8ToStringEb",
            "__ZN8firebase9firestore6remote21WatchChangeAggregatorC2EPNS1_22TargetMetadataProviderE",
            "__ZN8firebase9firestore5locallsERNSt3__113basic_ostreamIcNS2_11char_traitsIcEEEENS1_12QueryPurposeE",
            "__ZN8firebase9firestore3apieqERKNS1_19CollectionReferenceES4_",
            "__ZN8firebase9firestore4util11OrderedCode26TEST_SkipToNextSpecialByteEPKcS4_",
            "__ZN8firebase9firestore6remote10Serializer18EncodePreconditionERKNS0_5model12PreconditionE",
            "__ZNK8firebase9firestore4core6Target15IsDocumentQueryEv",
            "__ZN8firebase9firestore3api9Firestore14DisableNetworkENSt3__18functionIFvNS0_4util6StatusEEEE",
            "__ZNK8firebase9firestore32_google_firestore_v1_BitSequence8ToStringEi",
            "__ZN8firebase9firestore5local10LocalStore22NotifyLocalViewChangesERKNSt3__16vectorINS1_16LocalViewChangesENS3_9allocatorIS5_EEEE",
            "__ZN8firebase9firestore5local18MemoryIndexManager16DeleteFieldIndexERKNS0_5model10FieldIndexE",
            "__ZN8firebase9firestore5indexlsERNSt3__113basic_ostreamIcNS2_11char_traitsIcEEEERKNS1_10IndexEntryE",
            "__ZNK8firebase9firestore3api19CollectionReference11AddDocumentEONS0_4core13ParsedSetDataENSt3__18functionIFvNS0_4util6StatusEEEE",
            "__ZN8firebase9firestore5local18LevelDbTargetCache12UpdateTargetERKNS1_10TargetDataE",
            "__ZN8firebase9firestore4core15FirestoreClient26AddSnapshotsInSyncListenerERKNSt3__110shared_ptrINS1_13EventListenerINS0_4util5EmptyEEEEE",
            "__ZN8firebase9firestore5model9DeepCloneERKNS0_26_google_firestore_v1_ValueE",
            "__ZNK8firebase9firestore4core11FieldFilter3Rep11CanonicalIdEv",
            "__ZN8firebase9firestore4core10SyncEngine35EmitNewSnapshotsAndNotifyLocalStoreERKNS0_9immutable9SortedMapINS0_5model11DocumentKeyENS5_8DocumentENS0_4util10ComparatorIS6_EEEERKN4absl12lts_202206238optionalINS0_6remote11RemoteEventEEE",
            "__ZNKR8firebase9firestore4core5Query17ToAggregateTargetEv",
            "__ZN8firebase9firestore6remote9Datastore30LookupDocumentsWithCredentialsERKNS0_11credentials9AuthTokenERKNSt3__112basic_stringIcNS7_11char_traitsIcEENS7_9allocatorIcEEEERKNS7_6vectorINS0_5model11DocumentKeyENSB_ISI_EEEEONS7_8functionIFvRKNS0_4util8StatusOrINSG_INSH_8DocumentENSB_ISQ_EEEEEEEEE",
            "__ZN8firebase9firestore5local18LevelDbTargetCache14UpdateMetadataERKNS1_10TargetDataE",
            "__ZNK8firebase9firestore6remote21WatchStreamSerializer20EncodeUnwatchRequestEi",
            "__ZN8firebase9firestore5model11CanonicalIdERKNS0_26_google_firestore_v1_ValueE",
            "__ZN8firebase9firestore5local26LevelDbRemoteDocumentCacheC1EPNS1_18LevelDbPersistenceEPNS1_15LocalSerializerE",
            "__ZNK8firebase9firestore27_google_firestore_v1_Cursor8ToStringEi",
            "__ZNK8firebase9firestore30_google_api_ResourceDescriptor8ToStringEi",
            "__ZN8firebase9firestore4util15BackgroundQueueC2EPNS1_8ExecutorE",
            "__ZN8firebase9firestore5local19LevelDbIndexManager11EncodeBoundERKNS0_5model10FieldIndexERKNS0_4core6TargetERKNS7_16IndexBoundValuesE",
            "__ZN8firebase9firestore3api19MemoryCacheSettingsC2ERKS2_",
            "__ZN8firebase9firestore5model13PatchMutationC2ERKNS1_8MutationE",
            "__ZN8firebase9firestore4corelsERNSt3__113basic_ostreamIcNS2_11char_traitsIcEEEERKNS1_5QueryE",
            "__ZN8firebase9firestore5model11SetMutationC1ERKNS1_8MutationE",
            "__ZNK8firebase9firestore4util10AsyncQueue20VerifyIsCurrentQueueEv",
            "__ZN8firebase9firestore5local18LevelDbPersistence21DeleteAllFieldIndexesEv",
            "__ZNK8firebase9firestore4core12ParseContext19ValidatePathSegmentEN4absl12lts_2022062311string_viewE",
            "__ZN8firebase9firestore4core15FirestoreClient13GetNamedQueryERKNSt3__112basic_stringIcNS3_11char_traitsIcEENS3_9allocatorIcEEEENS3_8functionIFvNS1_5QueryEbEEE",
            "__ZNK8firebase9firestore4core5Query16WithLimitToFirstEi",
            "__ZN8firebase9firestore4util8Schedule8PopIfDueEv",
            "__ZNK8firebase9firestore41_google_firestore_v1_MapValue_FieldsEntry8ToStringEi",
            "__ZNK8firebase9firestore34_google_firestore_v1_ListenRequest8ToStringEi",
            "__ZN8firebase9firestore4util10AsyncQueue17EnqueueAfterDelayENSt3__16chrono8durationIxNS3_5ratioILl1ELl1000EEEEENS1_7TimerIdERKNS3_8functionIFvvEEE",
            "__ZN8firebase9firestore4util17DoubleBitwiseHashEd",
            "__ZNK8firebase9firestore3api19MemoryCacheSettings4HashEv",
            "__ZN8firebase9firestore4util18CompareMixedNumberEdx",
            "__ZN8firebase9firestore5local13LevelDbOpener14MigrateDataDirERKNS0_4util4PathES6_",
            "__ZNK8firebase9firestore4core5Query20normalized_order_bysEv",
            "__ZNK8firebase9firestore5model13PatchMutation3Rep16ApplyToLocalViewERNS1_15MutableDocumentEN4absl12lts_202206238optionalINS1_9FieldMaskEEERKNS_9TimestampE",
            "__ZN8firebase9firestore4core15CompositeFilterC2EONSt3__110shared_ptrIKNS1_6Filter3RepEEE",
            "__ZN8firebase9firestore5local12ReferenceSet16RemoveReferencesERKNS0_9immutable9SortedSetINS0_5model11DocumentKeyENS0_4util10ComparatorIS6_EEEEi",
            "__ZN8firebase9firestore3api25QueryListenerRegistration6RemoveEv",
            "__ZNK8firebase9firestore4core12ViewSnapshot5queryEv",
            "__ZNK8firebase9firestore4core18DocumentViewChange8ToStringEv",
            "__ZN8firebase9firestore5local20LevelDbMutationQueue39AllMutationBatchesAffectingDocumentKeysERKNS0_9immutable9SortedSetINS0_5model11DocumentKeyENS0_4util10ComparatorIS6_EEEE",
            "__ZN8firebase9firestore6remote21WatchChangeAggregator19AddDocumentToTargetEiRKNS0_5model15MutableDocumentE",
            "__ZNK8firebase9firestore5model10DatabaseId9CompareToERKS2_",
            "__ZNK8firebase9firestore5local10TargetData17WithExpectedCountEN4absl12lts_202206238optionalIiEE",
            "__ZN8firebase9firestore6nanopb17FreeNanopbMessageEPK10pb_field_sPv",
            "__ZN8firebase9firestore5local13LevelDbOpener10StorageDirERKNS0_4util4PathE",
            "__ZN8firebase9firestore5local18LocalDocumentsView25GetDocumentsMatchingQueryERKNS0_4core5QueryERKNS0_5model11IndexOffsetERN4absl12lts_202206238optionalINS1_12QueryContextEEE",
            "__ZNK8firebase9firestore6remote10Serializer9DecodeKeyEPNS0_4util11ReadContextEPK16pb_bytes_array_s",
            "__ZN8firebase9firestore4core11FieldFilterC2ENSt3__110shared_ptrIKNS1_6Filter3RepEEE",
            "__ZN8firebase9firestore4core12EventManager7OnErrorERKNS1_5QueryERKNS0_4util6StatusE",
            "__ZN8firebase9firestore6remote11RemoteStore18SendUnwatchRequestEi",
            "__ZN8firebase9firestore5model17CanonifyReferenceERKNS0_26_google_firestore_v1_ValueE",
            "__ZN8firebase9firestore3api10WriteBatch10DeleteDataERKNS1_17DocumentReferenceE",
            "__ZN8firebase9firestore4core13ParsedSetDataC1ENS0_5model11ObjectValueENS3_9FieldMaskENSt3__16vectorINS3_14FieldTransformENS6_9allocatorIS8_EEEE",
            "__ZNK8firebase9firestore5model11IndexOffset9CompareToERKS2_",
            "__ZN8firebase9firestore5local45LevelDbDocumentOverlayCollectionGroupIndexKey3KeyERKNS1_25LevelDbDocumentOverlayKeyE",
            "__ZN8firebase9firestore5model16CanonifyGeoPointERKNS0_26_google_firestore_v1_ValueE",
            "__ZN8firebase9firestore6remote6Stream26ResumeStartWithCredentialsERKNS0_4util8StatusOrINS0_11credentials9AuthTokenEEERKNSt3__112basic_stringIcNSA_11char_traitsIcEENSA_9allocatorIcEEEE",
            "__ZN8firebase9firestore4coreeqERKNS1_7OrderByES4_",
            "__ZThn8_N8firebase9firestore6remote11RemoteStore19OnWatchStreamChangeERKNS1_11WatchChangeERKNS0_5model15SnapshotVersionE",
            "__ZNK8firebase9firestore4core11FieldFilter3Rep7MatchesERKNS0_5model8DocumentE",
            "__ZN8firebase9firestore4core12DatabaseInfoC2ENS0_5model10DatabaseIdENSt3__112basic_stringIcNS5_11char_traitsIcEENS5_9allocatorIcEEEESB_b",
            "__ZN8firebase9firestore4util16ObjcThrowHandlerENS1_13ExceptionTypeEPKcS4_iRKNSt3__112basic_stringIcNS5_11char_traitsIcEENS5_9allocatorIcEEEE",
            "__ZN8firebase9firestore5local26MemoryDocumentOverlayCache11SaveOverlayEiRKNS0_5model8MutationE",
            "__ZNK8firebase9firestore41_google_firestore_v1_ListDocumentsRequest8ToStringEi",
            "__ZNK8firebase9firestore6remote10Serializer14EncodeDocumentERKNS0_5model11DocumentKeyERKNS3_11ObjectValueE",
            "__ZNK8firebase9firestore45_google_firestore_v1_ListCollectionIdsRequest8ToStringEi",
            "__ZN8firebase9firestore4util10AsyncQueue7DisposeEv",
            "__ZNK8firebase9firestore31_firestore_client_MutationQueue8ToStringEi",
            "__ZNK8firebase9firestore4core19ArrayContainsFilter3Rep7MatchesERKNS0_5model8DocumentE",
            "__ZN8firebase9firestore5local20LevelDbMutationQueue25AllMutationBatchesWithIdsERKNSt3__13setIiNS3_4lessIiEENS3_9allocatorIiEEEE",
            "__ZN8firebase9firestore6nanopb11CheckedSizeEm",
            "__ZN8firebase9firestore4core5QueryC1ENS0_5model12ResourcePathENSt3__112basic_stringIcNS5_11char_traitsIcEENS5_9allocatorIcEEEE",
            "__ZN8firebase9firestore4core14KeyFieldFilterC2ERKNS0_5model9FieldPathENS1_11FieldFilter8OperatorENS0_6nanopb13SharedMessageINS0_26_google_firestore_v1_ValueEEE",
            "__ZN8firebase9firestore4core15FirestoreClient14DisableNetworkENSt3__18functionIFvNS0_4util6StatusEEEE",
            "__ZNK8firebase9firestore4util6Status5State7DeleterclEPKS3_",
            "__ZNK8firebase9firestore5local10LocalStore27SetIndexAutoCreationEnabledEb",
            "__ZNK8firebase9firestore5model13MutationBatch21ApplyToRemoteDocumentERNS1_15MutableDocumentERKNS1_19MutationBatchResultE",
            "__ZN8firebase9firestore6bundle12BundleLoader10AddElementENSt3__110unique_ptrINS1_13BundleElementENS3_14default_deleteIS5_EEEEy",
            "__ZN8firebase9firestore4util18CalculateMd5DigestEN4absl12lts_2022062311string_viewE",
            "__ZN8firebase9firestore5local17MemoryBundleCache14SaveNamedQueryERKNS0_6bundle10NamedQueryE",
            "__ZN8firebase9firestore5model11ObjectValueC1ERKS2_",
            "__ZN8firebase9firestore6nanopb16ByteStringWriterC2Ev",
            "__ZNK8firebase9firestore4core21DocumentViewChangeSet10GetChangesEv",
            "__ZN8firebase9firestore5local20LevelDbMutationQueue29NextMutationBatchAfterBatchIdEi",
            "__ZN8firebase9firestore5local24LevelDbTargetDocumentKey6DecodeEN4absl12lts_2022062311string_viewE",
            "__ZN8firebase9firestore4util4Task14AwaitIfRunningEv",
            "__ZNK8firebase9firestore35_google_protobuf_Struct_FieldsEntry8ToStringEi",
            "__ZNK8firebase9firestore4util10ComparatorIN4absl12lts_2022062311string_viewEE7CompareES5_S5_",
            "__ZN8firebase9firestore5local19MemoryMutationQueue38AllMutationBatchesAffectingDocumentKeyERKNS0_5model11DocumentKeyE",
            "__ZNK8firebase9firestore4core11FieldFilter3Rep10GetFiltersEv",
            "__ZN8firebase9firestore5local12ReferenceSet13AddReferencesERKNS0_9immutable9SortedSetINS0_5model11DocumentKeyENS0_4util10ComparatorIS6_EEEEi",
            "__ZN8firebase9firestore5local10LocalStore20GetNextMutationBatchEi",
            "__ZN8firebase9firestore5local19LevelDbIndexManager20GetCollectionParentsERKNSt3__112basic_stringIcNS3_11char_traitsIcEENS3_9allocatorIcEEEE",
            "__ZN8firebase9firestore5local19LruGarbageCollector7CollectERKNSt3__113unordered_mapIiNS1_10TargetDataENS3_4hashIiEENS3_8equal_toIiEENS3_9allocatorINS3_4pairIKiS5_EEEEEE",
            "__ZN8firebase9firestore6remote10Serializer12DecodeStringEPK16pb_bytes_array_s",
            "__ZNK8firebase9firestore4core5Bound18SortsAfterDocumentERKNSt3__16vectorINS1_7OrderByENS3_9allocatorIS5_EEEERKNS0_5model8DocumentE",
            "__ZN8firebase9firestore5local17MemoryPersistence16GetMutationQueueERKNS0_11credentials4UserEPNS1_12IndexManagerE",
            "__ZN8firebase9firestore5local17MemoryPersistenceD2Ev",
            "__ZN8firebase9firestore3api9Firestore12worker_queueEv",
            "__ZNK8firebase9firestore3api13QuerySnapshot4HashEv",
            "__ZN8firebase9firestore5local9LruParams7DefaultEv",
            "__ZNK8firebase9firestore5local18LocalDocumentsView26RecalculateAndSaveOverlaysEONSt3__113unordered_mapINS0_5model11DocumentKeyEPNS5_15MutableDocumentENS5_15DocumentKeyHashENS3_8equal_toIS6_EENS3_9allocatorINS3_4pairIKS6_S8_EEEEEE",
            "__ZN8firebase9firestore4core16ParseAccumulator14AddToFieldMaskENS0_5model9FieldPathE",
            "__ZN8firebase9firestore4util19ExecutorLibdispatch6CancelEj",
            "__ZN8firebase9firestore5model7CompareERKNS0_26_google_firestore_v1_ValueES4_",
            "__ZNK8firebase9firestore3api13QuerySnapshot5queryEv",
            "__ZNK8firebase9firestore6remote10Serializer21DecodeMissingDocumentEPNS0_4util11ReadContextERKNS0_46_google_firestore_v1_BatchGetDocumentsResponseE",
            "__ZN8firebase9firestore3apineERKNS1_23PersistentCacheSettingsES4_",
            "__ZN8firebase9firestore4core11FieldFilterC1ENSt3__110shared_ptrIKNS1_6Filter3RepEEE",
            "__ZNK8firebase9firestore5local15LocalSerializer14DecodeMutationEPNS0_6nanopb6ReaderERNS0_26_google_firestore_v1_WriteE",
            "__ZN8firebase9firestore4util11ExecutorStd7ExecuteEONSt3__18functionIFvvEEE",
            "__ZN8firebase9firestore5model11DocumentKeyC2ERKNS1_12ResourcePathE",
            "__ZN8firebase9firestore6remote11RemoteStore18AddToWritePipelineERKNS0_5model13MutationBatchE",
            "__ZNK8firebase9firestore6remote10Serializer19DecodeMaybeDocumentEPNS0_4util11ReadContextERNS0_46_google_firestore_v1_BatchGetDocumentsResponseE",
            "__ZN8firebase9firestore5local27LevelDbLruReferenceDelegateD0Ev",
            "__ZN8firebase9firestore6remote19GrpcStreamingReader17FinishImmediatelyEv",
            "__ZNK8firebase9firestore3api17DocumentReference6ParentEv",
            "__ZN8firebase9firestore5local18LocalDocumentsView11GetDocumentERKNS0_5model11DocumentKeyERKNSt3__16vectorINS3_13MutationBatchENS7_9allocatorIS9_EEEE",
            "__ZN8firebase9firestore3api9Firestore17SetClientLanguageENSt3__112basic_stringIcNS3_11char_traitsIcEENS3_9allocatorIcEEEE",
            "__ZN8firebase9firestore5local19MemoryMutationQueue29NextMutationBatchAfterBatchIdEi",
            "__ZN8firebase9firestore3apineERKNS1_8SettingsES4_",
            "__ZN8firebase9firestore4core15CompositeFilter16WithAddedFiltersERKNSt3__16vectorINS1_6FilterENS3_9allocatorIS5_EEEE",
            "__ZN8firebase9firestore6nanopb12StringReaderC1EN4absl12lts_2022062311string_viewE",
            "__ZN8firebase9firestore5local19StandardReadOptionsEv",
            "__ZN8firebase9firestore4util8ScheduleD2Ev",
            "__ZN8firebase9firestore6remote21WatchChangeAggregator17EnsureTargetStateEi",
            "__ZNK8firebase9firestore5model11OverlayHashclERKNS1_7OverlayE",
            "__ZN8firebase9firestore4util10AsyncQueue15ExecuteBlockingERKNSt3__18functionIFvvEEE",
            "__ZThn8_N8firebase9firestore6remote11RemoteStore18OnWatchStreamCloseERKNS0_4util6StatusE",
            "__ZN8firebase9firestore4util8Executor12CreateSerialEPKc",
            "__ZN8firebase9firestore5modelgtERKNS1_11DocumentKeyES4_",
            "__ZNK8firebase9firestore4util15ByteStreamApple3eofEv",
            "__ZN8firebase9firestore4util6StatusC2ENS0_5ErrorENSt3__112basic_stringIcNS4_11char_traitsIcEENS4_9allocatorIcEEEE",
            "__ZN8firebase9firestore5local19MemoryMutationQueue16AcknowledgeBatchERKNS0_5model13MutationBatchERKNS0_6nanopb10ByteStringE",
            "__ZNK8firebase9firestore5local11QueryEngine11NeedsRefillERKNS0_4core5QueryERKNS0_5model11DocumentSetERKNS0_9immutable9SortedSetINS7_11DocumentKeyENS0_4util10ComparatorISD_EEEERKNS7_15SnapshotVersionE",
            "__ZNK8firebase9firestore5model14ArrayTransform3Rep4HashEv",
            "__ZNK8firebase9firestore6remote10Serializer32DecodeExistenceFilterWatchChangeEPNS0_4util11ReadContextERKNS0_36_google_firestore_v1_ExistenceFilterE",
            "__ZN8firebase9firestore5local18LocalDocumentsView33GetDocumentsMatchingDocumentQueryERKNS0_5model12ResourcePathE",
            "__ZN8firebase9firestore4util10Filesystem6RenameERKNS1_4PathES5_",
            "__ZN8firebase9firestore6remote13GrpcUnaryCallD0Ev",
            "__ZN8firebase9firestore5local9LruParams13WithCacheSizeEx",
            "__ZN8firebase9firestore3apieqERKNS1_17DocumentReferenceES4_",
            "__ZNK8firebase9firestore4core5Query12AddingFilterENS1_6FilterE",
            "__ZN8firebase9firestore4core17TargetIdGenerator6NextIdEv",
            "__ZNK8firebase9firestore42_google_firestore_v1_DeleteDocumentRequest8ToStringEi",
            "__ZN8firebase9firestore6remote10Serializer12EncodeStringERKNSt3__112basic_stringIcNS3_11char_traitsIcEENS3_9allocatorIcEEEE",
            "__ZN8firebase9firestore4util10LogicUtils17IsFlatConjunctionERKNS0_4core6FilterE",
            "__ZN8firebase9firestore12EnumToStringENS0_61_google_firestore_v1_StructuredQuery_CompositeFilter_OperatorE",
            "__ZN8firebase9firestore4core15FirestoreClient26GetDocumentsFromLocalCacheERKNS0_3api5QueryEONSt3__110unique_ptrINS1_13EventListenerINS3_13QuerySnapshotEEENS7_14default_deleteISB_EEEE",
            "__ZN8firebase9firestore5local17MemoryPersistence12target_cacheEv",
            "__ZNK8firebase9firestore35_google_firestore_v1_DocumentChange8ToStringEi",
            "__ZNK8firebase9firestore3api5Query27ParseExpectedReferenceValueERKNS0_26_google_firestore_v1_ValueERKNSt3__18functionIFNS6_12basic_stringIcNS6_11char_traitsIcEENS6_9allocatorIcEEEEvEEE",
            "__ZNK8firebase9firestore6bundle16BundleSerializer18DecodeBundledQueryERNS0_4util10JsonReaderERKN8nlohmann10basic_jsonINSt3__13mapENS8_6vectorENS8_12basic_stringIcNS8_11char_traitsIcEENS8_9allocatorIcEEEEbxydSE_NS6_14adl_serializerENSA_IhNSE_IhEEEEEE",
            "__ZN8firebase9firestore5local40LevelDbDocumentOverlayCollectionIndexKey3KeyEN4absl12lts_2022062311string_viewERKNS0_5model12ResourcePathEiS5_",
            "__ZN8firebase9firestore4util11OrderedCode23WriteInfinityDecreasingEPNSt3__112basic_stringIcNS3_11char_traitsIcEENS3_9allocatorIcEEEE",
            "__ZN8firebase9firestore5model15MutableDocument15UnknownDocumentERKNS1_11DocumentKeyERKNS1_15SnapshotVersionE",
            "__ZN8firebase9firestore5local27LevelDbLruReferenceDelegate8IsPinnedERKNS0_5model11DocumentKeyE",
            "__ZNK8firebase9firestore44_google_firestore_v1_BeginTransactionRequest8ToStringEi",
            "__ZN8firebase9Timestamp3NowEv",
            "__ZN8firebase9firestore4util4TaskD2Ev",
            "__ZNK8firebase9firestore4core5Query14MatchesOrderByERKNS0_5model8DocumentE",
            "__ZN8firebase9firestore4util11ExecutorStd15ExecuteBlockingEONSt3__18functionIFvvEEE",
            "__ZN8firebase9firestore6remote10GrpcStream6OnReadERKN4grpc10ByteBufferE",
            "__ZN8firebase9firestore5local18LocalDocumentsView35GetDocumentsMatchingCollectionQueryERKNS0_4core5QueryERKNS0_5model11IndexOffsetERN4absl12lts_202206238optionalINS1_12QueryContextEEE",
            "__ZN8firebase9firestore5local27LevelDbLruReferenceDelegate26EnumerateOrphanedDocumentsERKNSt3__18functionIFvRKNS0_5model11DocumentKeyExEEE",
            "__ZNK8firebase9firestore5model9FieldPath15CanonicalStringEv",
            "__ZNK8firebase9firestore6remote21WatchStreamSerializer17DecodeWatchChangeEPNS0_6nanopb6ReaderERNS0_35_google_firestore_v1_ListenResponseE",
            "__ZNK8firebase9firestore4core5Query23AsCollectionQueryAtPathENS0_5model12ResourcePathE",
            "__ZN8firebase9firestore6nanopb16ByteStringWriterC1Ev",
            "__ZN8firebase9firestore4util12CreateAutoIdEv",
            "__ZN8firebase9firestore5local27LevelDbDocumentOverlayCacheC1ERKNS0_11credentials4UserEPNS1_18LevelDbPersistenceEPNS1_15LocalSerializerE",
            "__ZNK8firebase9firestore43_google_firestore_v1_StructuredQuery_Filter8ToStringEi",
            "__ZNK8firebase9firestore5model15SnapshotVersion9CompareToERKS2_",
            "__ZN8firebase9firestore5local17MemoryTargetCache28SetLastRemoteSnapshotVersionENS0_5model15SnapshotVersionE",
            "__ZNK8firebase9firestore6remote10Serializer17DecodeQueryTargetEPNS0_4util11ReadContextERNS0_39_google_firestore_v1_Target_QueryTargetE",
            "__ZNK8firebase9firestore5local17MemoryTargetCache28GetLastRemoteSnapshotVersionEv",
            "__ZN8firebase9firestore6remoteeqERKNS1_19DocumentWatchChangeES4_",
            "__ZNK8firebase9firestore5local19LevelDbIndexManager30GetNextCollectionGroupToUpdateEv",
            "__ZNK8firebase9firestore6remote11BloomFilter13Md5HashDigestEN4absl12lts_2022062311string_viewE",
            "__ZN8firebase9firestore6remote10Serializer15DecodeTimestampEPNS0_4util11ReadContextERKNS0_26_google_protobuf_TimestampE",
            "__ZN8firebase9firestore4core4View22ApplyOnlineStateChangeENS0_5model11OnlineStateE",
            "__ZNK8firebase9firestore5local27LevelDbDocumentOverlayCache11GetOverlaysERKNS0_5model12ResourcePathEi",
            "__ZNK8firebase9firestore6bundle16BundleSerializer20DecodeReferenceValueERNS0_4util10JsonReaderERKNSt3__112basic_stringIcNS6_11char_traitsIcEENS6_9allocatorIcEEEE",
            "__ZN8firebase9firestore4utillsERNSt3__113basic_ostreamIcNS2_11char_traitsIcEEEERKNS1_6StatusE",
            "__ZN8firebase9firestore4util10LogicUtils17ApplyDistributionERKNS0_4core6FilterES6_",
            "__ZN8firebase9firestore6remote34CreateFirebaseMetadataProviderNoOpEv",
            "__ZN8firebase9firestore5local26LevelDbRemoteDocumentCacheD2Ev",
            "__ZNK8firebase9firestore3api16DocumentSnapshot6existsEv",
            "__ZN8firebaselsERNSt3__113basic_ostreamIcNS0_11char_traitsIcEEEERKNS_9TimestampE",
            "__ZN8firebase9firestore4core13QueryListener6CreateENS1_5QueryENS1_13ListenOptionsEONSt3__110shared_ptrINS1_13EventListenerINS1_12ViewSnapshotEEEEE",
            "__ZN8firebase9firestore5local19MemoryMutationQueueC1EPNS1_17MemoryPersistenceERKNS0_11credentials4UserE",
            "__ZN8firebase9firestore4util19ExecutorLibdispatch15PopFromScheduleEv",
            "__ZNK8firebase9firestore25_firestore_BundleMetadata8ToStringEi",
            "__ZN8firebase9firestore4util11OrderedCode22ReadInfinityDecreasingEPN4absl12lts_2022062311string_viewE",
            "__ZThn8_N8firebase9firestore4core10SyncEngine6ListenENS1_5QueryE",
            "__ZN8firebase9firestore4util11OrderedCode20ReadStringDecreasingEPN4absl12lts_2022062311string_viewEPNSt3__112basic_stringIcNS7_11char_traitsIcEENS7_9allocatorIcEEEE",
            "__ZN8firebase9firestore3api9FirestoreD1Ev",
            "__ZNK8firebase9firestore4core6Target18GetDescendingBoundERKNS0_5model7SegmentERKN4absl12lts_202206238optionalINS1_5BoundEEE",
            "__ZNK8firebase9firestore5index10IndexEntry4HashEv",
            "__ZN8firebase9firestore5model15MutableDocument13FoundDocumentENS1_11DocumentKeyERKNS1_15SnapshotVersionENS1_11ObjectValueE",
            "__ZN8firebase9firestore5local13LevelDbOpenerC1ENS0_4core12DatabaseInfoENS0_4util4PathE",
            "__ZN8firebase9firestore5local18LocalDocumentsView21GetOverlayedDocumentsERKNS0_9immutable9SortedMapINS0_5model11DocumentKeyENS5_15MutableDocumentENS0_4util10ComparatorIS6_EEEE",
            "__ZNK8firebase9firestore5local20DocumentKeyReference8ToStringEv",
            "__ZN8firebase9firestore4core15FirestoreClient25GetDocumentFromLocalCacheERKNS0_3api17DocumentReferenceEONSt3__110unique_ptrINS1_13EventListenerINS3_16DocumentSnapshotEEENS7_14default_deleteISB_EEEE",
            "__ZN8firebase9firestore5local28MemoryEagerReferenceDelegate20OnTransactionStartedEN4absl12lts_2022062311string_viewE",
            "__ZN8firebase9firestore4core12EventManagerC2EPNS1_16QueryEventSourceE",
            "__ZNK8firebase9firestore29_google_api_CustomHttpPattern8ToStringEi",
            "__ZN8firebase9firestore5model13GetUpperBoundEj",
            "__ZN8firebase9firestore6remote11WriteStream17NotifyStreamCloseERKNS0_4util6StatusE",
            "__ZN8firebase9firestore5local45LevelDbDocumentOverlayCollectionGroupIndexKey3KeyEN4absl12lts_2022062311string_viewES5_iRKNS0_5model11DocumentKeyE",
            "__ZN8firebase9firestore6remote16ByteBufferReaderC1ERKN4grpc10ByteBufferE",
            "__ZN8firebase9firestore4util11ExecutorStd13PollingThreadENSt3__110shared_ptrINS2_11SharedStateEEE",
            "__ZN8firebase9firestore5local26MemoryLruReferenceDelegate17CalculateByteSizeEv",
            "__ZN8firebase9firestore4util10AsyncQueue19EnterRestrictedModeEv",
            "__ZN8firebase9firestore5local23LevelDbMutationQueueKey3KeyEN4absl12lts_2022062311string_viewE",
            "__ZNK8firebase9firestore5local20DocumentKeyReference5ByKey7CompareERKS2_S5_",
            "__ZN8firebase9firestore4core11FieldFilter3RepC2ENS0_5model9FieldPathENS2_8OperatorENS0_6nanopb13SharedMessageINS0_26_google_firestore_v1_ValueEEE",
            "__ZN8firebase9firestore4core13QueryListener20OnOnlineStateChangedENS0_5model11OnlineStateE",
            "__ZN8firebase9firestore6remote6Stream12OnStreamReadERKN4grpc10ByteBufferE",
            "__ZThn8_N8firebase9firestore4core10SyncEngine13StopListeningERKNS1_5QueryE",
            "__ZNK8firebase9firestore21_firestore_NamedQuery8ToStringEi",
            "__ZNK8firebase9firestore3api23PersistentCacheSettings4HashEv",
            "__ZN8firebase9TimestampC2Exi",
            "__ZN8firebase9firestore5local27LevelDbLruReferenceDelegate15RemoveReferenceERKNS0_5model11DocumentKeyE",
            "__ZN8firebase9firestore5local19MemoryMutationQueueC2EPNS1_17MemoryPersistenceERKNS0_11credentials4UserE",
            "__ZN8firebase9firestore5local27LevelDbLruReferenceDelegateC2EPNS1_18LevelDbPersistenceENS1_9LruParamsE",
            "__ZN8firebase9firestore6remote10Serializer15EncodeFieldPathERKNS0_5model9FieldPathE",
            "__ZN8firebase9firestore5model11DocumentKey8FromNameERKNSt3__112basic_stringIcNS3_11char_traitsIcEENS3_9allocatorIcEEEE",
            "__ZNK8firebase9firestore32_google_firestore_v1_BloomFilter8ToStringEi",
            "__ZN8firebase9firestore5model11DocumentSetC2EONS1_18DocumentComparatorE",
            "__ZN8firebase9firestore6remote10GrpcStream14WriteAndFinishEON4grpc10ByteBufferE",
            "__ZNK8firebase9firestore5local27LevelDbDocumentOverlayCache10GetOverlayERKNS1_25LevelDbDocumentOverlayKeyE",
            "__ZN8firebase9firestore4util10JsonReader14RequiredObjectEPKcRKN8nlohmann10basic_jsonINSt3__13mapENS7_6vectorENS7_12basic_stringIcNS7_11char_traitsIcEENS7_9allocatorIcEEEEbxydSD_NS5_14adl_serializerENS9_IhNSD_IhEEEEEE",
            "__ZN8firebase9firestore5model11ObjectValueC2Ev",
            "__ZN8firebase9firestore6remote10GrpcStream29FastFinishCompletionsBlockingEv",
            "__ZN8firebase9firestore6nanopb8internal6IndentEii",
            "__ZNO8firebase9firestore4core16ParseAccumulator7SetDataENS0_5model11ObjectValueE",
            "__ZNK8firebase9firestore6nanopb10ByteString8ToStringEv",
            "__ZNK8firebase9firestore4util11ExecutorStd17IsCurrentExecutorEv",
            "__ZN8firebase9firestore5model10DatabaseIdC2ENSt3__112basic_stringIcNS3_11char_traitsIcEENS3_9allocatorIcEEEES9_",
            "__ZNK8firebase9firestore48_google_firestore_v1_StructuredQuery_FieldFilter8ToStringEi",
            "__ZN8firebase9firestore6remote14GrpcCompletion8CompleteEb",
            "__ZN8firebase9firestore5local26MemoryLruReferenceDelegate12RemoveTargetERKNS1_10TargetDataE",
            "__ZN8firebase9firestore3api8Settings17CopyCacheSettingsERKNS1_18LocalCacheSettingsE",
            "__ZN8firebase9firestore6remote18OnlineStateTracker34LogClientOfflineWarningIfNecessaryERKNSt3__112basic_stringIcNS3_11char_traitsIcEENS3_9allocatorIcEEEE",
            "__ZNK8firebase9firestore5local26LevelDbRemoteDocumentCache6GetAllERKNS0_9immutable9SortedSetINS0_5model11DocumentKeyENS0_4util10ComparatorIS6_EEEE",
            "__ZNK8firebase9firestore5local15LocalSerializer21DecodeUnknownDocumentEPNS0_6nanopb6ReaderERKNS0_33_firestore_client_UnknownDocumentE",
            "__ZNK8firebase9firestore5local18MemoryIndexManager30GetNextCollectionGroupToUpdateEv",
            "__ZNK8firebase9firestore46_google_firestore_v1_BatchGetDocumentsResponse8ToStringEi",
            "__ZN8firebase9firestore4core4View20UpdateLimboDocumentsEv",
            "__ZN8firebase9firestore4core17TargetIdGeneratorC2ENS1_19TargetIdGeneratorIdEi",
            "__ZN8firebase9firestore5local18LevelDbPersistence15GetIndexManagerERKNS0_11credentials4UserE",
            "__ZN8firebase9firestore5model11DocumentKey14FromPathStringERKNSt3__112basic_stringIcNS3_11char_traitsIcEENS3_9allocatorIcEEEE",
            "__ZNK8firebase9firestore5model11DocumentSet11GetDocumentERKNS1_11DocumentKeyE",
            "__ZN8firebase9firestore6remote19ConnectivityMonitor20MaybeInvokeCallbacksENS2_13NetworkStatusE",
            "__ZN8firebase9firestore3api25QueryListenerRegistrationC2ENSt3__110shared_ptrINS0_4core15FirestoreClientEEENS4_INS5_18AsyncEventListenerINS5_12ViewSnapshotEEEEENS4_INS5_13QueryListenerEEE",
            "__ZN8firebase9firestore5local26MemoryLruReferenceDelegate15AddInMemoryPinsEPNS1_12ReferenceSetE",
            "__ZN8firebase9firestore6remote14GrpcConnection21CreateStreamingReaderEN4absl12lts_2022062311string_viewERKNS0_11credentials9AuthTokenERKNSt3__112basic_stringIcNSA_11char_traitsIcEENSA_9allocatorIcEEEERKN4grpc10ByteBufferE",
            "__ZN8firebase9firestore5local26LevelDbDocumentMutationKey6DecodeEN4absl12lts_2022062311string_viewE",
            "__ZNK8firebase9firestore4core6Target17GetAscendingBoundERKNS0_5model7SegmentERKN4absl12lts_202206238optionalINS1_5BoundEEE",
            "__ZN8firebase9firestore4core11FieldFilterC2ERKNS1_6FilterE",
            "__ZN8firebase9firestore3api9Firestore13EnableNetworkENSt3__18functionIFvNS0_4util6StatusEEEE",
            "__ZN8firebase9firestore4util19ExecutorLibdispatch11InvokeAsyncEPv",
            "__ZNK8firebase9firestore4util19ExecutorLibdispatch17IsCurrentExecutorEv",
            "__ZN8firebase9firestore4core10SyncEngine16ApplyRemoteEventERKNS0_6remote11RemoteEventE",
            "__ZNK8firebase9firestore45_google_firestore_v1_BatchGetDocumentsRequest8ToStringEi",
            "__ZNK8firebase9firestore6remote10Serializer13EncodeFiltersERKNSt3__16vectorINS0_4core6FilterENS3_9allocatorIS6_EEEE",
            "__ZN8firebase9firestore5local17MemoryPersistence18reference_delegateEv",
            "__ZN8firebase9firestore6remote10GrpcStream17OnOperationFailedEv",
            "__ZNK8firebase9firestore5model13PatchMutation3Rep21ApplyToRemoteDocumentERNS1_15MutableDocumentERKNS1_14MutationResultE",
            "__ZN8firebase9firestore5local18LevelDbMutationKey9KeyPrefixEN4absl12lts_2022062311string_viewE",
            "__ZN8firebase9firestore5local26LevelDbDocumentMutationKey9KeyPrefixEv",
            "__ZN8firebase9firestore4util11ExecutorStdC1Ei",
            "__ZN8firebase9firestore5model6EqualsERKNS0_31_google_firestore_v1_ArrayValueES4_",
            "__ZN8firebase9firestore6remote10GrpcStream10MaybeWriteEN4absl12lts_202206238optionalINS1_8internal13BufferedWriteEEE",
            "__ZN8firebase9firestore6bundle12BundleReaderC2ENS1_16BundleSerializerENSt3__110unique_ptrINS0_4util10ByteStreamENS4_14default_deleteIS7_EEEE",
            "__ZN8firebase9firestore6remote18ExponentialBackoffC1ERKNSt3__110shared_ptrINS0_4util10AsyncQueueEEENS5_7TimerIdE",
            "__ZNK8firebase9firestore6remote21WatchChangeAggregator12GetTargetIdsERKNS1_17WatchTargetChangeE",
            "__ZN8firebase9firestore4util11OrderedCode18WriteNumDecreasingEPNSt3__112basic_stringIcNS3_11char_traitsIcEENS3_9allocatorIcEEEEy",
            "__ZN8firebase9firestore4core22ArrayContainsAnyFilterC2ERKNS0_5model9FieldPathENS0_6nanopb13SharedMessageINS0_26_google_firestore_v1_ValueEEE",
            "__ZN8firebase9firestore5model8ContainsENS0_31_google_firestore_v1_ArrayValueENS0_26_google_firestore_v1_ValueE",
            "__ZNK8firebase9firestore27_google_firestore_v1_Target8ToStringEi",
            "__ZNK8firebase9firestore6remote19DatastoreSerializer20MergeLookupResponsesERKNSt3__16vectorIN4grpc10ByteBufferENS3_9allocatorIS6_EEEE",
            "__ZN8firebase9firestore6remote23LoadGrpcRootCertificateEv",
            "__ZN8firebase9firestore6remote18OnlineStateTracker24HandleWatchStreamFailureERKNS0_4util6StatusE",
            "__ZN8firebase9firestore4util11OrderedCode20ReadDoubleDecreasingEPN4absl12lts_2022062311string_viewEPd",
            "__ZNK8firebase9firestore5model11SetMutation3Rep21ApplyToRemoteDocumentERNS1_15MutableDocumentERKNS1_14MutationResultE",
            "__ZN8firebase9firestore5local18LevelDbTransactionC2EPN7leveldb2DBEN4absl12lts_2022062311string_viewERKNS3_11ReadOptionsERKNS3_12WriteOptionsE",
            "__ZN8firebase9firestore4core11Transaction21EnsureCommitNotCalledEv",
            "__ZN8firebase9firestore5local18LevelDbPersistenceC1ENSt3__110unique_ptrIN7leveldb2DBENS3_14default_deleteIS6_EEEENS0_4util4PathENS3_3setINS3_12basic_stringIcNS3_11char_traitsIcEENS3_9allocatorIcEEEENS3_4lessISI_EENSG_ISI_EEEENS1_15LocalSerializerERKNS1_9LruParamsE",
            "__ZN8firebase9firestore5local17MemoryTargetCache13RemoveTargetsExRKNSt3__113unordered_mapIiNS1_10TargetDataENS3_4hashIiEENS3_8equal_toIiEENS3_9allocatorINS3_4pairIKiS5_EEEEEE",
            "__ZNK8firebase9firestore5local25MemoryRemoteDocumentCache25GetDocumentsMatchingQueryERKNS0_4core5QueryERKNS0_5model11IndexOffsetERN4absl12lts_202206238optionalINS1_12QueryContextEEENSD_ImEERKNSt3__113unordered_mapINS7_11DocumentKeyENS7_7OverlayENS7_15DocumentKeyHashENSI_8equal_toISK_EENSI_9allocatorINSI_4pairIKSK_SL_EEEEEE",
            "__ZN8firebase9firestore6bundle12BundleReader17GetBundleMetadataEv",
            "__ZNK8firebase9firestore3api9Firestore8settingsEv",
            "__ZN8firebase9firestore5model18TransformOperationC1ENSt3__110shared_ptrIKNS2_3RepEEE",
            "__ZNK8firebase9firestore4core5Query22InequalityFilterFieldsEv",
            "__ZNK8firebase9firestore5local15LocalSerializer18EncodeBundledQueryERKNS0_6bundle12BundledQueryE",
            "__ZN8firebase9firestore6remote6Stream5CloseERKNS0_4util6StatusE",
            "__ZNK8firebase9firestore5local26MemoryDocumentOverlayCache10GetOverlayERKNS0_5model11DocumentKeyE",
            "__ZN8firebase9firestore5model12Precondition6ExistsEb",
            "__ZN8firebase9firestore5local20LevelDbIndexEntryKey3KeyEiN4absl12lts_2022062311string_viewES5_S5_S5_S5_",
            "__ZNK8firebase9firestore5local20LevelDbMutationQueue18mutation_batch_keyEi",
            "__ZN8firebase9firestore5model12PreconditionC1ENS2_4TypeENS1_15SnapshotVersionEb",
            "__ZN8firebase9firestore6remote11WatchStream16CreateGrpcStreamEPNS1_14GrpcConnectionERKNS0_11credentials9AuthTokenERKNSt3__112basic_stringIcNS9_11char_traitsIcEENS9_9allocatorIcEEEE",
            "__ZNK8firebase9firestore26_google_firestore_v1_Write8ToStringEi",
            "__ZN8firebase9firestore5local10LocalStore14AllocateTargetENS0_4core6TargetE",
            "__ZN8firebase9firestore5local20LevelDbMutationQueue23PerformConsistencyCheckEv",
            "__ZN8firebase9firestore5local27LevelDbLruReferenceDelegateD1Ev",
            "__ZNK8firebase9firestore5local26LevelDbRemoteDocumentCache6GetAllERKNSt3__112basic_stringIcNS3_11char_traitsIcEENS3_9allocatorIcEEEERKNS0_5model11IndexOffsetEm",
            "__ZN8firebase9firestore6remote11WatchStreamC2ERKNSt3__110shared_ptrINS0_4util10AsyncQueueEEENS4_INS0_11credentials19CredentialsProviderINSA_9AuthTokenENSA_4UserEEEEENS4_INSB_INS3_12basic_stringIcNS3_11char_traitsIcEENS3_9allocatorIcEEEESL_EEEENS1_10SerializerEPNS1_14GrpcConnectionEPNS1_19WatchStreamCallbackE",
            "__ZN8firebase9firestore3api9Firestore13GetNamedQueryERKNSt3__112basic_stringIcNS3_11char_traitsIcEENS3_9allocatorIcEEEENS3_8functionIFvNS0_4core5QueryEbEEE",
            "__ZN8firebase9firestore6remote29FirebaseMetadataProviderApple14UpdateMetadataERN4grpc13ClientContextE",
            "__ZN8firebase9firestore4util4TaskD0Ev",
            "__ZN8firebase9firestore6remote9Datastore16HandleCallStatusERKNS0_4util6StatusE",
            "__ZNK8firebase9firestore5model11DocumentSet5eraseERKNS1_11DocumentKeyE",
            "__ZN8firebase9firestore4core10SyncEngine29RegisterPendingWritesCallbackENSt3__18functionIFvNS0_4util6StatusEEEE",
            "__ZN8firebase9firestore5local10LocalStore18GetLastStreamTokenEv",
            "__ZNK8firebase9firestore5model7Overlay8ToStringEv",
            "__ZN8firebase9firestore4util13ByteStreamCpp12ToReadResultERKNSt3__112basic_stringIcNS3_11char_traitsIcEENS3_9allocatorIcEEEE",
            "__ZN8firebase9firestore5local24LevelDbDocumentTargetKey3KeyERKNS0_5model11DocumentKeyEi",
            "__ZN8firebase9firestore5model16GetPreviousValueERKNS0_26_google_firestore_v1_ValueE",
            "__ZN8firebase9firestore6remote14GrpcConnection17SetClientLanguageENSt3__112basic_stringIcNS3_11char_traitsIcEENS3_9allocatorIcEEEE",
            "__ZN8firebase9firestore6remote8internal14BufferedWriter13TryStartWriteEv",
            "__ZNK8firebase9firestore6remote10Serializer17DecodeWatchChangeEPNS0_4util11ReadContextERNS0_35_google_firestore_v1_ListenResponseE",
            "__ZN8firebase9firestore4util10AsyncQueueC1ENSt3__110unique_ptrINS1_8ExecutorENS3_14default_deleteIS5_EEEE",
            "__ZN8firebase9firestore4util11OrderedCode21WriteDoubleDecreasingEPNSt3__112basic_stringIcNS3_11char_traitsIcEENS3_9allocatorIcEEEEd",
            "__ZN8firebase9firestore4util8internal13FailAssertionEPKcS4_iRKNSt3__112basic_stringIcNS5_11char_traitsIcEENS5_9allocatorIcEEEES4_",
            "__ZN8firebase9firestore11credentials4User15UnauthenticatedEv",
            "__ZN8firebase9firestore5model15SnapshotVersionC1ERKNS_9TimestampE",
            "__ZN8firebase9firestore5model8MaxValueEv",
            "__ZN8firebase9firestore5local20LevelDbMutationQueue16AcknowledgeBatchERKNS0_5model13MutationBatchERKNS0_6nanopb10ByteStringE",
            "__ZNK8firebase9firestore3api5Query12LimitToFirstEi",
            "__ZN8firebase9firestore5local18LevelDbPersistence26DeleteEverythingWithPrefixEN4absl12lts_2022062311string_viewERKNSt3__112basic_stringIcNS6_11char_traitsIcEENS6_9allocatorIcEEEE",
            "__ZNK8firebase9firestore5local27LevelDbDocumentOverlayCache28ForEachKeyWithLargestBatchIdEiNSt3__18functionIFvONS1_25LevelDbDocumentOverlayKeyEEEE",
            "__ZN8firebase9firestore4core4ViewC2ENS1_5QueryENS0_9immutable9SortedSetINS0_5model11DocumentKeyENS0_4util10ComparatorIS7_EEEE",
            "__ZN8firebase9firestore6remote14GrpcConnection12CreateStreamEN4absl12lts_2022062311string_viewERKNS0_11credentials9AuthTokenERKNSt3__112basic_stringIcNSA_11char_traitsIcEENSA_9allocatorIcEEEEPNS1_18GrpcStreamObserverE",
            "__ZNK8firebase9firestore4core5Query29MatchesPathAndCollectionGroupERKNS0_5model8DocumentE",
            "__ZNO8firebase9firestore4core16ParseAccumulator10UpdateDataENS0_5model11ObjectValueE",
            "__ZN8firebase9firestore6remote11TargetState11MarkCurrentEv",
            "__ZN8firebase9firestore5modellsERNSt3__113basic_ostreamIcNS2_11char_traitsIcEEEERKNS1_8DocumentE",
            "__ZNK8firebase9firestore6remote10Serializer21EncodeCompositeFilterERKNS0_4core15CompositeFilterE",
            "__ZNK8firebase9firestore4util19ExecutorLibdispatch4NameEv",
            "__ZNK8firebase9firestore5local15LocalSerializer16EncodeNoDocumentERKNS0_5model15MutableDocumentE",
            "__ZN8firebase9firestore5local26MemoryLruReferenceDelegate15RemoveReferenceERKNS0_5model11DocumentKeyE",
            "__ZN8firebase9firestore6remote11WriteStream20NotifyStreamResponseERKN4grpc10ByteBufferE",
            "__ZN8firebase9firestore6remote10SerializerC2ENS0_5model10DatabaseIdE",
            "__ZN8firebase9firestore5local18LevelDbTargetCacheC1EPNS1_18LevelDbPersistenceEPNS1_15LocalSerializerE",
            "__ZNK8firebase9firestore3api19CollectionReference13collection_idEv",
            "__ZNK8firebase9firestore5local15LocalSerializer19DecodeMutationBatchEPNS0_6nanopb6ReaderERNS0_28_firestore_client_WriteBatchE",
            "__ZN8firebase9firestore4core4ViewC1ENS1_5QueryENS0_9immutable9SortedSetINS0_5model11DocumentKeyENS0_4util10ComparatorIS7_EEEE",
            "__ZN8firebase9firestore5local18LocalDocumentsView40GetDocumentsMatchingCollectionGroupQueryERKNS0_4core5QueryERKNS0_5model11IndexOffsetERN4absl12lts_202206238optionalINS1_12QueryContextEEE",
            "__ZN8firebase9firestore6nanopb14MakeStringViewERKNS1_10ByteStringE",
            "__ZNK8firebase9firestore33_google_firestore_v1_DocumentMask8ToStringEi",
            "__ZN8firebase9firestore4core15FirestoreClient14RemoveListenerERKNSt3__110shared_ptrINS1_13QueryListenerEEE",
            "__ZN8firebase9firestore5local18LevelDbTransaction11NewIteratorEv",
            "__ZNK8firebase9firestore3api16DocumentSnapshot8GetValueERKNS0_5model9FieldPathE",
            "__ZN8firebase9firestore3api17DocumentReference10UpdateDataEONS0_4core16ParsedUpdateDataENSt3__18functionIFvNS0_4util6StatusEEEE",
            "__ZN8firebase9firestore4util11OrderedCode20ReadStringOrInfinityEPN4absl12lts_2022062311string_viewEPNSt3__112basic_stringIcNS7_11char_traitsIcEENS7_9allocatorIcEEEEPb",
            "__ZN8firebase9firestore5model15MutableDocument15InvalidDocumentENS1_11DocumentKeyE",
            "__ZN8firebase9firestore3api14LoadBundleTaskD2Ev",
            "__ZN8firebase9firestore5modeleqERKNS1_14AggregateAliasES4_",
            "__ZN8firebase9firestore12EnumToStringENS0_38_google_api_ResourceDescriptor_HistoryE",
            "__ZN8firebase9firestore6remote11TargetState19ClearPendingChangesEv",
            "__ZNK8firebase9firestore28_firestore_client_NoDocument8ToStringEi",
            "__ZN8firebase9firestore6remote10Serializer15EncodeFieldMaskERKNS0_5model9FieldMaskE",
            "__ZNK8firebase9firestore5local15LocalSerializer19EncodeMutationBatchERKNS0_5model13MutationBatchE",
            "__ZN8firebase9firestore4core12ParseContext20AddToFieldTransformsENS0_5model9FieldPathENS3_18TransformOperationE",
            "__ZNK8firebase9firestore5model25NumericIncrementTransform7operandEv",
            "__ZNK8firebase9firestore5local18LocalDocumentsView16GetNextDocumentsERKNSt3__112basic_stringIcNS3_11char_traitsIcEENS3_9allocatorIcEEEERKNS0_5model11IndexOffsetEi",
            "__ZThn8_N8firebase9firestore6remote19GrpcStreamingReader12OnStreamReadERKN4grpc10ByteBufferE",
            "__ZN8firebase9firestore5model11CanonicalIdERKNS0_31_google_firestore_v1_ArrayValueE",
            "__ZN8firebase9firestore5local11DescribeKeyEN7leveldb5SliceE",
            "__ZNK8firebase9firestore37_google_firestore_v1_RunQueryResponse8ToStringEi",
            "__ZN8firebase9firestore5local20LevelDbIndexEntryKey9KeyPrefixEv",
            "__ZN8firebase9firestore6remote14GrpcConnection16EnsureActiveStubEv",
            "__ZN8firebase9firestore4core13QueryListener6CreateENS1_5QueryEONSt3__18functionIFvNS0_4util8StatusOrINS1_12ViewSnapshotEEEEEE",
            "__ZN8firebase9firestore5model8Mutation3RepC2EONS1_11DocumentKeyEONS1_12PreconditionEONSt3__16vectorINS1_14FieldTransformENS8_9allocatorISA_EEEEON4absl12lts_202206238optionalINS1_9FieldMaskEEE",
            "__ZNK8firebase9firestore23_firestore_BundledQuery8ToStringEi",
            "__ZN8firebase9firestore4util10AsyncQueue14EnqueueRelaxedERKNSt3__18functionIFvvEEE",
            "__ZN8firebase9firestore5local10ProtoSizerC2ENS1_15LocalSerializerE",
            "__ZNK8firebase9firestore3api5Query11LimitToLastEi",
            "__ZN8firebase9firestore6remote9Datastore8ShutdownEv",
            "__ZNK8firebase9firestore47_google_firestore_v1_StructuredAggregationQuery8ToStringEi",
            "__ZN8firebase9firestore5local18MemoryIndexManager21UpdateCollectionGroupERKNSt3__112basic_stringIcNS3_11char_traitsIcEENS3_9allocatorIcEEEENS0_5model11IndexOffsetE",
            "__ZNK8firebase9firestore5model14FieldTransformeqERKS2_",
            "__ZN8firebase9firestore4core12EventManager16AddQueryListenerENSt3__110shared_ptrINS1_13QueryListenerEEE",
            "__ZN8firebase9firestore5local18LevelDbMutationKey9KeyPrefixEv",
            "__ZN8firebase9firestore6remote6Stream5WriteEON4grpc10ByteBufferE",
            "__ZNK8firebase9firestore6remote21WatchStreamSerializer13ParseResponseEPNS0_6nanopb6ReaderE",
            "__ZN8firebase9firestore5model11ObjectValue6SetAllENSt3__13mapINS1_9FieldPathEN4absl12lts_202206238optionalINS0_6nanopb7MessageINS0_26_google_firestore_v1_ValueEEEEENS3_4lessIS5_EENS3_9allocatorINS3_4pairIKS5_SD_EEEEEE",
            "__ZN8firebase9firestore5local17MemoryTargetCache9AddTargetERKNS1_10TargetDataE",
            "__ZN8firebase9firestore5local18MemoryIndexManager21DeleteAllFieldIndexesEv",
            "__ZN8firebase9firestore6nanopb10ByteStringC2ERKS2_",
            "__ZN8firebase9firestore5local17MemoryPersistence8ShutdownEv",
            "__ZN8firebase9firestore3apieqERKNS1_14AggregateQueryES4_",
            "__ZN8firebase9firestore6remote6StreamC2ERKNSt3__110shared_ptrINS0_4util10AsyncQueueEEENS4_INS0_11credentials19CredentialsProviderINSA_9AuthTokenENSA_4UserEEEEENS4_INSB_INS3_12basic_stringIcNS3_11char_traitsIcEENS3_9allocatorIcEEEESL_EEEEPNS1_14GrpcConnectionENS5_7TimerIdESQ_SQ_",
            "__ZN8firebase9firestore4core13ParsedSetDataC2ENS0_5model11ObjectValueENSt3__16vectorINS3_14FieldTransformENS5_9allocatorIS7_EEEE",
            "__ZN8firebase9firestore5modellsERNSt3__113basic_ostreamIcNS2_11char_traitsIcEEEERKNS1_11DocumentKeyE",
            "__ZNK8firebase9firestore5local26LevelDbRemoteDocumentCache3GetERKNS0_5model11DocumentKeyE",
            "__ZN8firebase9firestore4util10Filesystem18LegacyDocumentsDirEN4absl12lts_2022062311string_viewE",
            "__ZN8firebase9firestore6remote21WatchChangeAggregator17CreateRemoteEventERKNS0_5model15SnapshotVersionE",
            "__ZNK8firebase9firestore6remote10Serializer21DecodeDocumentsTargetEPNS0_4util11ReadContextERKNS0_43_google_firestore_v1_Target_DocumentsTargetE",
            "__ZNK8firebase9firestore5local26LevelDbRemoteDocumentCache25GetDocumentsMatchingQueryERKNS0_4core5QueryERKNS0_5model11IndexOffsetERN4absl12lts_202206238optionalINS1_12QueryContextEEENSD_ImEERKNSt3__113unordered_mapINS7_11DocumentKeyENS7_7OverlayENS7_15DocumentKeyHashENSI_8equal_toISK_EENSI_9allocatorINSI_4pairIKSK_SL_EEEEEE",
            "__ZN8firebase9firestore5local19LruGarbageCollector20RunGarbageCollectionERKNSt3__113unordered_mapIiNS1_10TargetDataENS3_4hashIiEENS3_8equal_toIiEENS3_9allocatorINS3_4pairIKiS5_EEEEEE",
            "__ZN8firebase9firestore5local17MemoryTargetCache18RemoveMatchingKeysERKNS0_9immutable9SortedSetINS0_5model11DocumentKeyENS0_4util10ComparatorIS6_EEEEi",
            "__ZN8firebase9firestore5model9FieldPath16FromServerFormatERKNSt3__112basic_stringIcNS3_11char_traitsIcEENS3_9allocatorIcEEEE",
            "__ZN8firebase9firestore5local17MemoryTargetCache12UpdateTargetERKNS1_10TargetDataE",
            "__ZN8firebase9firestore5local17LevelDbMigrations13RunMigrationsEPN7leveldb2DBERKNS1_15LocalSerializerE",
            "__ZN8firebase9firestore5local28LevelDbIndexConfigurationKey9KeyPrefixEv",
            "__ZN8firebase9firestore5local19LevelDbIndexManager13AddFieldIndexERKNS0_5model10FieldIndexE",
            "__ZN8firebase9firestore6nanopb10ByteString4TakeEP16pb_bytes_array_s",
            "__ZN8firebase9firestore6remote14GrpcCompletion17WaitUntilOffQueueENSt3__16chrono8durationIxNS3_5ratioILl1ELl1000EEEEE",
            "__ZN8firebase9firestore12EnumToStringENS0_50_google_firestore_v1_TargetChange_TargetChangeTypeE",
            "__ZN8firebase9firestore5model12NumberEqualsERKNS0_26_google_firestore_v1_ValueES4_",
            "__ZNK8firebase9firestore5local15LocalSerializer16DecodeNoDocumentEPNS0_6nanopb6ReaderERKNS0_28_firestore_client_NoDocumentEb",
            "__ZN8firebase9firestore4core10SyncEngine11TransactionEiRKNSt3__110shared_ptrINS0_4util10AsyncQueueEEENS3_8functionIFvNS4_INS1_11TransactionEEENSA_IFvNS5_6StatusEEEEEEESF_",
            "__ZNK8firebase9firestore4core15FirestoreClient19VerifyNotTerminatedEv",
            "__ZNK8firebase9firestore5local15LocalSerializer14EncodeDocumentERKNS0_5model15MutableDocumentE",
            "__ZN8firebase9firestore12EnumToStringENS0_57_google_firestore_v1_StructuredQuery_FieldFilter_OperatorE",
            "__ZN8firebase9firestore5local44LevelDbDocumentOverlayLargestBatchIdIndexKey9KeyPrefixEN4absl12lts_2022062311string_viewE",
            "__ZN8firebase9firestore5local20LevelDbIndexEntryKey9KeyPrefixEi",
            "__ZN8firebase9firestore4coreeqERKNS1_5BoundES4_",
            "__ZN8firebase9firestore6remote9Datastore5StartEv",
            "__ZN8firebase9firestore5local26MemoryDocumentOverlayCache12SaveOverlaysEiRKNSt3__113unordered_mapINS0_5model11DocumentKeyENS5_8MutationENS5_15DocumentKeyHashENS3_8equal_toIS6_EENS3_9allocatorINS3_4pairIKS6_S7_EEEEEE",
            "__ZN8firebase9firestore4util15BackgroundQueueC1EPNS1_8ExecutorE",
            "__ZNK8firebase9firestore27_google_protobuf_BytesValue8ToStringEi",
            "__ZN8firebase9firestore4util19ExecutorLibdispatch12OnCompletionEPNS1_4TaskE",
            "__ZNK8firebase9firestore33_google_firestore_v1_WriteRequest8ToStringEi",
            "__ZNK8firebase9firestore4core11FieldFilter3Rep6EqualsERKNS1_6Filter3RepE",
            "__ZNK8firebase9firestore5model11SetMutation3Rep6EqualsERKNS1_8Mutation3RepE",
            "__ZN8firebase9firestore5local10LocalStoreD0Ev",
            "__ZNK8firebase9firestore5local18LevelDbPersistence23current_sequence_numberEv",
            "__ZN8firebase9firestore5local19MemoryMutationQueue23PerformConsistencyCheckEv",
            "__ZN8firebase9firestore11credentials35FirebaseAppCheckCredentialsProviderC2EP6FIRAppPU29objcproto18FIRAppCheckInterop11objc_object",
            "__ZNK8firebase9firestore4util4TaskltERKS2_",
            "__ZNK8firebase9firestore5local11QueryEngine27PerformQueryUsingRemoteKeysERKNS0_4core5QueryERKNS0_9immutable9SortedSetINS0_5model11DocumentKeyENS0_4util10ComparatorISA_EEEERKNS9_15SnapshotVersionE",
            "__ZN8firebase9firestore4util6Status11FromNSErrorEP7NSError",
            "__ZNK8firebase9firestore29_google_firestore_v1_MapValue8ToStringEi",
            "__ZNK8firebase9firestore5model15DocumentKeyHashclERKNS1_11DocumentKeyE",
            "__ZNK8firebase9firestore5local15LocalSerializer24DecodeFieldIndexSegmentsEPNS0_6nanopb6ReaderERNS0_32_google_firestore_admin_v1_IndexE",
            "__ZNK8firebase9firestore6remote11TargetState14ToTargetChangeEv",
            "__ZN8firebase9firestore3apineERKNS1_21MemoryEagerGcSettingsES4_",
            "__ZN8firebase9firestore5local17MemoryPersistence21DeleteAllFieldIndexesEv",
            "__ZN8firebase9firestore5local45LevelDbDocumentOverlayCollectionGroupIndexKey6DecodeEN4absl12lts_2022062311string_viewE",
            "__ZN8firebase9firestore5local21LevelDbQueryTargetKey3KeyEN4absl12lts_2022062311string_viewEi",
            "__ZNK8firebase9firestore4core8InFilter3Rep7MatchesERKNS0_5model8DocumentE",
            "__ZN8firebase9firestore5local18LevelDbPersistence16GetMutationQueueERKNS0_11credentials4UserEPNS1_12IndexManagerE",
            "__ZN8firebase9firestore6remote8internal14BufferedWriter16DequeueNextWriteEv",
            "__ZN8firebase9firestore6nanopb10ByteStringC1ERKS2_",
            "__ZN8firebase9firestore5model17IsServerTimestampERKNS0_26_google_firestore_v1_ValueE",
            "__ZNK8firebase9firestore5local10ProtoSizer17CalculateByteSizeERKNS0_5model13MutationBatchE",
            "__ZNK8firebase9firestore5local10TargetData18WithSequenceNumberEx",
            "__ZNK8firebase9firestore45_google_firestore_v1_WriteRequest_LabelsEntry8ToStringEi",
            "__ZN8firebase9firestore5local16LevelDbTargetKey9KeyPrefixEv",
            "__ZN8firebase9firestore6remote6Stream17HandleErrorStatusERKNS0_4util6StatusE",
            "__ZN8firebase9firestore6remote10GrpcStreamD1Ev",
            "__ZN8firebase9firestore4core10SyncEngine22RemoveAndCleanupTargetEiNS0_4util6StatusE",
            "__ZN8firebase9firestore4util11ExecutorStdD0Ev",
            "__ZN8firebase9firestore3api8Settings20set_cache_size_bytesEx",
            "__ZN8firebase9firestore5local18LevelDbPersistence6CreateENS0_4util4PathENS1_15LocalSerializerERKNS1_9LruParamsE",
            "__ZN8firebase9firestore5local17MemoryPersistence34ReleaseOtherUserSpecificComponentsERKNSt3__112basic_stringIcNS3_11char_traitsIcEENS3_9allocatorIcEEEE",
            "__ZN8firebase9firestore5model25NumericIncrementTransformC2ENS0_6nanopb7MessageINS0_26_google_firestore_v1_ValueEEE",
            "__ZN8firebase9firestore6remote10GrpcStream5StartEv",
            "__ZNK8firebase9firestore5local28MemoryEagerReferenceDelegate24MutationQueuesContainKeyERKNS0_5model11DocumentKeyE",
            "__ZNK8firebase9firestore34_google_firestore_v1_CommitRequest8ToStringEi",
            "__ZNK8firebase9firestore4core5Query10limit_typeEv",
            "__ZN8firebase9firestore4core15FirestoreClient17TerminateInternalEv",
            "__ZN8firebase9firestore4core17TransactionRunnerC1ERKNSt3__110shared_ptrINS0_4util10AsyncQueueEEEPNS0_6remote11RemoteStoreENS3_8functionIFvNS4_INS1_11TransactionEEENSD_IFvNS5_6StatusEEEEEEESI_i",
            "__ZN8firebase9firestore5local40LevelDbDocumentOverlayCollectionIndexKey9KeyPrefixEN4absl12lts_2022062311string_viewE",
            "__ZN8firebase9firestore6remote9Datastore17RunAggregateQueryERKNS0_4core5QueryERKNSt3__16vectorINS0_5model14AggregateFieldENS7_9allocatorISA_EEEEONS7_8functionIFvRKNS0_4util8StatusOrINS9_11ObjectValueEEEEEE",
            "__ZN8firebase9firestore6remote11RemoteStore14RestartNetworkEv",
            "__ZNK8firebase9firestore5model25NumericIncrementTransform3Rep16ComputeBaseValueERKN4absl12lts_202206238optionalINS0_26_google_firestore_v1_ValueEEE",
            "__ZN8firebase9firestore6remoteeqERKNS1_17WatchTargetChangeES4_",
            "__ZN8firebase9firestore4util11ExecutorStd12NextIdLockedEv",
            "__ZN8firebase9firestore6remoteeqERKNS1_26ExistenceFilterWatchChangeES4_",
            "__ZN8firebase9firestore3api14LoadBundleTask15NotifyObserversEv",
            "__ZN8firebase9firestore6remote11RemoteStore22DisableNetworkInternalEv",
            "__ZN8firebase9firestore5local26LevelDbRemoteDocumentCacheD0Ev",
            "__ZN8firebase9firestore6remote11WriteStream16CreateGrpcStreamEPNS1_14GrpcConnectionERKNS0_11credentials9AuthTokenERKNSt3__112basic_stringIcNS9_11char_traitsIcEENS9_9allocatorIcEEEE",
            "__ZNK8firebase9firestore6bundle16BundleSerializer16DecodeArrayValueERNS0_4util10JsonReaderERKN8nlohmann10basic_jsonINSt3__13mapENS8_6vectorENS8_12basic_stringIcNS8_11char_traitsIcEENS8_9allocatorIcEEEEbxydSE_NS6_14adl_serializerENSA_IhNSE_IhEEEEEE",
            "__ZN8firebase9firestore4core17TargetIdGenerator4seekEi",
            "__ZN8firebase9firestore3api16MakeFIRTimestampERKNS_9TimestampE",
            "__ZNK8firebase9firestore5model11DocumentKey8ToStringEv",
            "__ZN8firebase9firestore3api9Firestore22EnsureClientConfiguredEv",
            "__ZNK8firebase9firestore5model13MutationBatch16ApplyToLocalViewERNS1_15MutableDocumentEON4absl12lts_202206238optionalINS1_9FieldMaskEEE",
            "__ZNK8firebase9firestore5model15MutableDocument4HashEv",
            "__ZN8firebase9firestore5local15IndexBackfillerC2Ev",
            "__ZN8firebase9firestore4core11TransactionC2ENSt3__110shared_ptrINS0_6remote9DatastoreEEE",
            "__ZN8firebase9firestore5model13MutationBatchC1EiNS_9TimestampENSt3__16vectorINS1_8MutationENS4_9allocatorIS6_EEEES9_",
            "__ZN8firebase9firestore4core12ParseContext12ChildContextERKNS0_5model9FieldPathE",
            "__ZN8firebase9firestore4core11Transaction6UpdateERKNS0_5model11DocumentKeyEONS1_16ParsedUpdateDataE",
            "__ZN8firebase9firestore12EnumToStringENS0_55_google_firestore_admin_v1_Index_IndexField_ArrayConfigE",
            "__ZNK8firebase9firestore5local10LocalStore28GetLastRemoteSnapshotVersionEv",
            "__ZNK8firebase9firestore5local15LocalSerializer24EncodeFieldIndexSegmentsERKNSt3__16vectorINS0_5model7SegmentENS3_9allocatorIS6_EEEE",
            "__ZN8firebase9firestore4core15FirestoreClientD2Ev",
            "__ZN8firebase9firestore5local10LocalStore13GetTargetDataERKNS0_4core6TargetE",
            "__ZN8firebase9firestore5model10IsMinValueERKNS0_26_google_firestore_v1_ValueE",
            "__ZN8firebase9firestore4core10SyncEngine36FailOutstandingPendingWriteCallbacksERKNSt3__112basic_stringIcNS3_11char_traitsIcEENS3_9allocatorIcEEEE",
            "__ZN8firebase9firestore5model11DocumentKeyC2EONS1_12ResourcePathE",
            "__ZNK8firebase9firestore4core5Query10StartingAtENS1_5BoundE",
            "__ZN8firebase9firestore3api8Settings23set_persistence_enabledEb",
            "__ZN8firebase9firestore4core10SyncEngine17RunAggregateQueryERKNS1_5QueryERKNSt3__16vectorINS0_5model14AggregateFieldENS6_9allocatorIS9_EEEEONS6_8functionIFvRKNS0_4util8StatusOrINS8_11ObjectValueEEEEEE",
            "__ZN8firebase9firestore6nanopb10ByteStringD2Ev",
            "__ZNK8firebase9firestore5local26MemoryDocumentOverlayCache11GetOverlaysERKNS0_5model12ResourcePathEi",
            "__ZNK8firebase9firestore6remote10Serializer12EncodeTargetERKNS0_5local10TargetDataE",
            "__ZN8firebase9firestore4util10Filesystem7TempDirEv",
            "__ZN8firebase9firestore4util8Schedule21InsertPreservingOrderEPNS1_4TaskE",
            "__ZN8firebase9firestore4util10LogicUtils34AssertFieldFilterOrCompositeFilterERKNS0_4core6FilterE",
            "__ZN8firebase9firestore5local10LocalStore16HandleUserChangeERKNS0_11credentials4UserE",
            "__ZNK8firebase9firestore4core6Target8ToStringEv",
            "__ZN8firebase9firestore4util10AsyncQueue26EnqueueEvenWhileRestrictedERKNSt3__18functionIFvvEEE",
            "__ZN8firebase9firestore4core13QueryListenerC2ENS1_5QueryENS1_13ListenOptionsEONSt3__110shared_ptrINS1_13EventListenerINS1_12ViewSnapshotEEEEE",
            "__ZN8firebase9firestore5local18LevelDbTargetCache12SaveMetadataEv",
            "__ZN8firebase9firestore4core15FirestoreClient13ListenToQueryENS1_5QueryENS1_13ListenOptionsEONSt3__110shared_ptrINS1_13EventListenerINS1_12ViewSnapshotEEEEE",
            "__ZN8firebase9firestore4util6Status17WithPlatformErrorENSt3__110unique_ptrINS1_13PlatformErrorENS3_14default_deleteIS5_EEEE",
            "__ZN8firebase9firestore5local26MemoryLruReferenceDelegate19UpdateLimboDocumentERKNS0_5model11DocumentKeyE",
            "__ZN8firebase9firestore5local17MemoryTargetCache15GetMatchingKeysEi",
            "__ZN8firebase9firestore5model14ArrayTransformC1ERKNS1_18TransformOperationE",
            "__ZN8firebase9firestore6remote16ByteBufferWriter7ReleaseEv",
            "__ZN8firebase9firestore6remote11WriteStreamC1ERKNSt3__110shared_ptrINS0_4util10AsyncQueueEEENS4_INS0_11credentials19CredentialsProviderINSA_9AuthTokenENSA_4UserEEEEENS4_INSB_INS3_12basic_stringIcNS3_11char_traitsIcEENS3_9allocatorIcEEEESL_EEEENS1_10SerializerEPNS1_14GrpcConnectionEPNS1_19WriteStreamCallbackE",
            "__ZN8firebase9firestore5local10LocalStoreD1Ev",
            "__ZNK8firebase9firestore27_google_protobuf_Int32Value8ToStringEi",
            "__ZN8firebase9firestore6remote21WatchChangeAggregator21HandleExistenceFilterERKNS1_26ExistenceFilterWatchChangeE",
            "__ZN8firebase9firestore5local18LevelDbTransaction8Iterator4SeekERKNSt3__112basic_stringIcNS4_11char_traitsIcEENS4_9allocatorIcEEEE",
            "__ZN8firebase9firestore4core15FirestoreClient28ScheduleLruGarbageCollectionEv",
            "__ZN8firebase9firestore5local24LevelDbDocumentTargetKey9KeyPrefixERKNS0_5model12ResourcePathE",
            "__ZN8firebase9firestore5local19LevelDbIndexManager21UpdateCollectionGroupERKNSt3__112basic_stringIcNS3_11char_traitsIcEENS3_9allocatorIcEEEENS0_5model11IndexOffsetE",
            "__ZN8firebase9firestore3api10WriteBatch7SetDataERKNS1_17DocumentReferenceEONS0_4core13ParsedSetDataE",
            "__ZN8firebase9firestore4util11ExecutorStd7DisposeEv",
            "__ZN8firebase9firestore5local12ReferenceSet19RemoveAllReferencesEv",
            "__ZN8firebase9firestore5local27LevelDbLruReferenceDelegateD2Ev",
            "__ZN8firebase9firestore5model25NumericIncrementTransformC2ERKNS1_18TransformOperationE",
            "__ZN8firebase9firestore5local27LevelDbLruReferenceDelegate22GetSequenceNumberCountEv",
            "__ZN8firebase9firestore5local26LevelDbDocumentMutationKey9KeyPrefixEN4absl12lts_2022062311string_viewE",
            "__ZNK8firebase9firestore35_google_firestore_v1_DocumentRemove8ToStringEi",
            "__ZNK8firebase9firestore6remote10Serializer17DecodeCursorValueERNS0_27_google_firestore_v1_CursorE",
            "__ZNK8firebase9firestore5local19LevelDbIndexManager13GetFieldIndexERKNS0_4core6TargetE",
            "__ZN8firebase9firestore4util10JsonReader14RequiredDoubleEPKcRKN8nlohmann10basic_jsonINSt3__13mapENS7_6vectorENS7_12basic_stringIcNS7_11char_traitsIcEENS7_9allocatorIcEEEEbxydSD_NS5_14adl_serializerENS9_IhNSD_IhEEEEEE",
            "__ZN8firebase9firestore6nanopb16ByteStringWriterD1Ev",
            "__ZNO8firebase9firestore4core16ParseAccumulator9MergeDataENS0_5model11ObjectValueENS3_9FieldMaskE",
            "__ZN8firebase9firestore5local18LevelDbTransaction3GetEN4absl12lts_2022062311string_viewEPNSt3__112basic_stringIcNS6_11char_traitsIcEENS6_9allocatorIcEEEE",
            "__ZN8firebase9firestore4core12EventManager25RaiseSnapshotsInSyncEventEv",
            "__ZNK8firebase9firestore3api5Query9AggregateEONSt3__16vectorINS0_5model14AggregateFieldENS3_9allocatorIS6_EEEE",
            "__ZN8firebase9firestore4coreeqERKNS1_6TargetES4_",
            "__ZN8firebase9firestore5local16LevelDbBundleKey3KeyEN4absl12lts_2022062311string_viewE",
            "__ZN8firebase9firestore4core17TransactionRunner3RunEv",
            "__ZN8firebase9firestore5local18MemoryIndexManager20GetCollectionParentsERKNSt3__112basic_stringIcNS3_11char_traitsIcEENS3_9allocatorIcEEEE",
            "__ZN8firebase9firestore4util10Filesystem20RecursivelyRemoveDirERKNS1_4PathE",
            "__ZNK8firebase9firestore6remote11RemoteStore21CanAddToWritePipelineEv",
            "__ZN8firebase9firestore5local18LevelDbTargetCache28SetLastRemoteSnapshotVersionENS0_5model15SnapshotVersionE",
            "__ZN8firebase9firestore6remote16ByteBufferWriterC1Ev",
            "__ZNK8firebase9firestore5model19MutationBatchResult8ToStringEv",
            "__ZNK8firebase9firestore4core4View27ShouldWaitForSyncedDocumentERKNS0_5model8DocumentES6_",
            "__ZN8firebase9firestore5local20LevelDbMutationQueueC1ERKNS0_11credentials4UserEPNS1_18LevelDbPersistenceEPNS1_12IndexManagerEPNS1_15LocalSerializerE",
            "__ZN8firebase9firestore6nanopb10ByteString7releaseEv",
            "__ZNK8firebase9firestore5model10DatabaseId8ToStringEv",
            "__ZNK8firebase9firestore6remote10Serializer12EncodeCursorERKNS0_6nanopb13SharedMessageINS0_31_google_firestore_v1_ArrayValueEEEb",
            "__ZNK8firebase9firestore22_google_protobuf_Value8ToStringEi",
            "__ZN8firebase9firestore5local10LocalStore11RejectBatchEi",
            "__ZN8firebase9firestore5local18LevelDbPersistenceD1Ev",
            "__ZN8firebase9firestore6nanopb10ByteStringC1EPK16pb_bytes_array_s",
            "__ZNK8firebase9firestore5local25MemoryRemoteDocumentCache25GetDocumentsMatchingQueryERKNS0_4core5QueryERKNS0_5model11IndexOffsetEN4absl12lts_202206238optionalImEERKNSt3__113unordered_mapINS7_11DocumentKeyENS7_7OverlayENS7_15DocumentKeyHashENSF_8equal_toISH_EENSF_9allocatorINSF_4pairIKSH_SI_EEEEEE",
            "__ZN8firebase9firestore6remote13GrpcUnaryCallD1Ev",
            "__ZNK8firebase9firestore5model15MutableDocument5CloneEv",
            "__ZN8firebase9firestore3api14LoadBundleTask7ObserveENSt3__18functionIFvNS1_22LoadBundleTaskProgressEEEE",
            "__ZN8firebase9firestore3api9Firestore30persistent_cache_index_managerEv",
            "__ZN8firebase9firestore4core16ParsedUpdateDataC2ENS0_5model11ObjectValueENS3_9FieldMaskENSt3__16vectorINS3_14FieldTransformENS6_9allocatorIS8_EEEE",
            "__ZN8firebase9firestore12EnumToStringENS0_46_google_firestore_v1_StructuredQuery_DirectionE",
            "__ZNK8firebase9firestore4core5Query13AddingOrderByENS1_7OrderByE",
            "__ZN8firebase9firestore5local20LevelDbNamedQueryKey9KeyPrefixEv",
            "__ZN8firebase9firestore12EnumToStringENS0_38_google_firestore_admin_v1_Index_StateE",
            "__ZN8firebase9firestore6nanopb10ByteStringC2ESt16initializer_listIhE",
            "__ZNK8firebase9firestore28_firestore_client_WriteBatch8ToStringEi",
            "__ZNK8firebase9firestore5local19LruGarbageCollector17CalculateByteSizeEv",
            "__ZN8firebase9firestore3api9Firestore11GetDocumentERKNSt3__112basic_stringIcNS3_11char_traitsIcEENS3_9allocatorIcEEEE",
            "__ZNK8firebase9firestore5local18LevelDbTransaction8Iterator5valueEv",
            "__ZN8firebase9firestore3api10MakeSourceE18FIRFirestoreSource",
            "__ZN8firebase9firestore3api9Firestore17set_user_executorENSt3__110unique_ptrINS0_4util8ExecutorENS3_14default_deleteIS6_EEEE",
            "__ZN8firebase9firestore6remote11RemoteStore5StartEv",
            "__ZNK8firebase9firestore6remote10Serializer11EncodeLabelENS0_5local12QueryPurposeE",
            "__ZNK8firebase9firestore5model14VerifyMutation3Rep21ApplyToRemoteDocumentERNS1_15MutableDocumentERKNS1_14MutationResultE",
            "__ZN8firebase9firestore3apieqERKNS1_16SnapshotMetadataES4_",
            "__ZN8firebase9firestore5local19LevelDbIndexManager12GetMinOffsetERKNS0_4core6TargetE",
            "__ZN8firebase9firestore6remote10GrpcStream13NewCompletionENS1_14GrpcCompletion4TypeERKNSt3__18functionIFvRKNS5_10shared_ptrIS3_EEEEE",
            "__ZN8firebase9firestore5local17MemoryPersistenceD1Ev",
            "__ZN8firebase9firestore4util11OrderedCode12ReadInfinityEPN4absl12lts_2022062311string_viewE",
            "__ZNK8firebase9firestore4core11FieldFilter3Rep19GetFlattenedFiltersEv",
            "__ZN8firebase9firestore5local9LruParams8DisabledEv",
            "__ZNK8firebase9firestore4core5Query8EndingAtENS1_5BoundE",
            "__ZN8firebase9firestore5local20LevelDbMutationQueue31GetHighestUnacknowledgedBatchIdEv",
            "__ZN8firebase9firestore6nanopb12StringReaderC1EPKhm",
            "__ZN8firebase9firestore6nanopb12StringWriterC2Ev",
            "__ZNK8firebase9firestore5model11DocumentKey4HashEv",
            "__ZNK8firebase9firestore4core15CompositeFilter3Rep13IsDisjunctionEv",
            "__ZN8firebase9firestore5local18LevelDbTargetCache27RemoveMatchingKeysForTargetEi",
            "__ZN8firebase9firestore5modellsERNSt3__113basic_ostreamIcNS2_11char_traitsIcEEEERKNS1_13MutationBatchE",
            "__ZN8firebase9firestore4core14KeyFieldFilterC1ERKNS0_5model9FieldPathENS1_11FieldFilter8OperatorENS0_6nanopb13SharedMessageINS0_26_google_firestore_v1_ValueEEE",
            "__ZNK8firebase9firestore4core5Query7MatchesERKNS0_5model8DocumentE",
            "__ZN8firebase9firestore6remote10GrpcStream17FinishImmediatelyEv",
            "__ZN8firebase9firestore6remote11RemoteStore13EnableNetworkEv",
            "__ZN8firebase9firestore4util11ExecutorStd20PushOnScheduleLockedENSt3__16chrono10time_pointINS4_12steady_clockENS4_8durationIxNS3_5ratioILl1ELl1000EEEEEEEiONS3_8functionIFvvEEE",
            "__ZN8firebase9firestore6remote10GrpcStream16RemoveCompletionERKNSt3__110shared_ptrINS1_14GrpcCompletionEEE",
            "__ZN8firebase9firestore4core12EventManager18QueryListenersInfo5EraseERKNSt3__110shared_ptrINS1_13QueryListenerEEE",
            "__ZN8firebase9firestore4core11Transaction18CreatePreconditionERKNS0_5model11DocumentKeyE",
            "__ZN8firebase9firestore4util10AsyncQueueD1Ev",
            "__ZN8firebase9firestore5local12ReferenceSet15RemoveReferenceERKNS1_20DocumentKeyReferenceE",
            "__ZNK8firebase9firestore43_google_firestore_v1_Target_DocumentsTarget8ToStringEi",
            "__ZN8firebase9firestore5local18LocalDocumentsView11GetDocumentERKNS0_5model11DocumentKeyE",
            "__ZN8firebase9firestore4coreeqERKNS1_5QueryES4_",
            "__ZNK8firebase9firestore5local18LocalDocumentsView15GetBaseDocumentERKNS0_5model11DocumentKeyERKN4absl12lts_202206238optionalINS3_7OverlayEEE",
            "__ZN8firebase9firestore5local12ReferenceSet11ContainsKeyERKNS0_5model11DocumentKeyE",
            "__ZNO8firebase9firestore4core16ParseAccumulator9MergeDataENS0_5model11ObjectValueE",
            "__ZN8firebase9firestore6bundle12BundleReader16ReadJsonToBufferEm",
            "__ZN8firebase9firestore6remote14GrpcConnection15CreateUnaryCallEN4absl12lts_2022062311string_viewERKNS0_11credentials9AuthTokenERKNSt3__112basic_stringIcNSA_11char_traitsIcEENSA_9allocatorIcEEEERKN4grpc10ByteBufferE",
            "__ZN8firebase9firestore4core13QueryListenerC1ENS1_5QueryENS1_13ListenOptionsEONSt3__110shared_ptrINS1_13EventListenerINS1_12ViewSnapshotEEEEE",
            "__ZN8firebase9firestore4util11MakeNSErrorERKNS1_6StatusE",
            "__ZN8firebase9firestore5model14VerifyMutationC1ENS1_11DocumentKeyENS1_12PreconditionE",
            "__ZN8firebase9firestore4util8internal13FailAssertionEPKcS4_iRKNSt3__112basic_stringIcNS5_11char_traitsIcEENS5_9allocatorIcEEEE",
            "__ZNK8firebase9firestore4core6Target22GetFieldFiltersForPathERKNS0_5model9FieldPathE",
            "__ZN8firebase9firestore6remote11BloomFilterC2ENS0_6nanopb10ByteStringEii",
            "__ZN8firebase9firestore4util19ExecutorLibdispatch7DisposeEv",
            "__ZN8firebase9firestore5local24LevelDbRemoteDocumentKey6DecodeEN4absl12lts_2022062311string_viewE",
            "__ZNK8firebase9firestore5model14FieldTransform4HashEv",
            "__ZNO8firebase9firestore4core16ParsedUpdateData10ToMutationERKNS0_5model11DocumentKeyERKNS3_12PreconditionE",
            "__ZN8firebase9firestore3api13QuerySnapshotC1ENSt3__110shared_ptrINS1_9FirestoreEEENS0_4core5QueryEONS7_12ViewSnapshotENS1_16SnapshotMetadataE",
            "__ZNK8firebase9firestore4util6Status11IgnoreErrorEv",
            "__ZN8firebase9firestore4core10SyncEngine13StopListeningERKNS1_5QueryE",
            "__ZN8firebase9firestore6nanopb9PrintTailEi",
            "__ZN8firebase9firestore5model18TargetIndexMatcher16BuildTargetIndexEv",
            "__ZN8firebase9firestore6remote6Stream23BackoffAndTryRestartingEv",
            "__ZN8firebase9firestore3api8SettingsC2ERKS2_",
            "__ZN8firebase9firestore5local26MemoryLruReferenceDelegate13RemoveTargetsExRKNSt3__113unordered_mapIiNS1_10TargetDataENS3_4hashIiEENS3_8equal_toIiEENS3_9allocatorINS3_4pairIKiS5_EEEEEE",
            "__ZN8firebase9firestore5local19LevelDbIndexManager12MemoizeIndexENS0_5model10FieldIndexE",
            "__ZN8firebase9firestore5local18MemoryIndexManager26GetDocumentsMatchingTargetERKNS0_4core6TargetE",
            "__ZN8firebase9firestore4core15FirestoreClient13EnableNetworkENSt3__18functionIFvNS0_4util6StatusEEEE",
            "__ZN8firebase9firestore4util11OrderedCode23ReadSignedNumIncreasingEPN4absl12lts_2022062311string_viewEPx",
            "__ZNK8firebase9firestore5local19LevelDbIndexManager15GetFieldIndexesEv",
            "__ZN8firebase9firestore5local18LevelDbTargetCache17DecodeTargetProtoEPNS0_6nanopb6ReaderE",
            "__ZN8firebase9firestore5local17MemoryTargetCache17CalculateByteSizeERKNS1_5SizerE",
            "__ZN8firebase9firestore5local10LocalStore18StartMutationQueueEv",
            "__ZN8firebase9firestore5local27LevelDbLruReferenceDelegate19UpdateLimboDocumentERKNS0_5model11DocumentKeyE",
            "__ZN8firebase9firestore5model12GetTypeOrderERKNS0_26_google_firestore_v1_ValueE",
            "__ZN8firebase9firestore6remote11RemoteStore18RaiseWatchSnapshotERKNS0_5model15SnapshotVersionE",
            "__ZN8firebase9firestore6remote10SerializerC1ENS0_5model10DatabaseIdE",
            "__ZNK8firebase9firestore5local15LocalSerializer19DecodeMaybeDocumentEPNS0_6nanopb6ReaderERNS0_31_firestore_client_MaybeDocumentE",
            "__ZN8firebase9firestore4core12EventManager29RemoveSnapshotsInSyncListenerERKNSt3__110shared_ptrINS1_13EventListenerINS0_4util5EmptyEEEEE",
            "__ZNK8firebase9firestore4core5Bound8ToStringEv",
            "__ZN8firebase9firestore5local27LevelDbLruReferenceDelegate22OnTransactionCommittedEv",
            "__ZN8firebase9firestore4util15ByteStreamApple12ReadToBufferEm",
            "__ZN8firebase9firestore6nanopb12StringReaderC1ERKNS1_10ByteStringE",
            "__ZN8firebase9firestore11credentials35FirebaseAppCheckCredentialsProviderD0Ev",
            "__ZN8firebase9firestore5local20LevelDbIndexEntryKey9KeyPrefixEiN4absl12lts_2022062311string_viewES5_S5_",
            "__ZN8firebase9firestore5model15MutableDocument22ConvertToFoundDocumentERKNS1_15SnapshotVersionE",
            "__ZNK8firebase9firestore5model8Mutation3Rep21LocalTransformResultsERKNS1_11ObjectValueERKNS_9TimestampE",
            "__ZN8firebase9firestore4core15FirestoreClient11TransactionEiNSt3__18functionIFvNS3_10shared_ptrINS1_11TransactionEEENS4_IFvNS0_4util6StatusEEEEEEESB_",
            "__ZN8firebase9firestore5local24LevelDbDocumentTargetKey19DecodeSentinelValueEN4absl12lts_2022062311string_viewE",
            "__ZN8firebase9firestore4core5QueryC2ENS0_5model12ResourcePathENSt3__112basic_stringIcNS5_11char_traitsIcEENS5_9allocatorIcEEEE",
            "__ZN8firebase9firestore6remote11WatchStreamC1ERKNSt3__110shared_ptrINS0_4util10AsyncQueueEEENS4_INS0_11credentials19CredentialsProviderINSA_9AuthTokenENSA_4UserEEEEENS4_INSB_INS3_12basic_stringIcNS3_11char_traitsIcEENS3_9allocatorIcEEEESL_EEEENS1_10SerializerEPNS1_14GrpcConnectionEPNS1_19WatchStreamCallbackE",
            "__ZN8firebase9firestore11credentials35FirebaseAppCheckCredentialsProvider8GetTokenENSt3__18functionIFvNS0_4util8StatusOrINS3_12basic_stringIcNS3_11char_traitsIcEENS3_9allocatorIcEEEEEEEEE",
            "__ZN8firebase9firestore6nanopb10ByteStringaSEOS2_",
            "__ZNK8firebase9firestore5model9FieldMask4HashEv",
            "__ZN8firebase9firestore5local18LevelDbPersistence12target_cacheEv",
            "__ZN8firebase9firestore4util8ScheduleD1Ev",
            "__ZN8firebase9firestore3api14LoadBundleTask8SetErrorERKNS0_4util6StatusE",
            "__ZN8firebase9firestore6remote19ConnectivityMonitor16SetInitialStatusENS2_13NetworkStatusE",
            "__ZN8firebase9firestore5local28MemoryEagerReferenceDelegate15RemoveReferenceERKNS0_5model11DocumentKeyE",
            "__ZN8firebase9firestore6remote11BloomFilter6CreateENS0_6nanopb10ByteStringEii",
            "__ZThn16_N8firebase9firestore6remote11RemoteStore30OnWriteStreamHandshakeCompleteEv",
            "__ZN8firebase9firestore3api9Firestore18GetCollectionGroupENSt3__112basic_stringIcNS3_11char_traitsIcEENS3_9allocatorIcEEEE",
            "__ZN8firebase9firestore3api17DocumentReference7SetDataEONS0_4core13ParsedSetDataENSt3__18functionIFvNS0_4util6StatusEEEE",
            "__ZN8firebase9firestore4core13QueryListener6CreateENS1_5QueryEONSt3__110shared_ptrINS1_13EventListenerINS1_12ViewSnapshotEEEEE",
            "__ZNK8firebase9firestore5local26LevelDbRemoteDocumentCache25GetDocumentsMatchingQueryERKNS0_4core5QueryERKNS0_5model11IndexOffsetEN4absl12lts_202206238optionalImEERKNSt3__113unordered_mapINS7_11DocumentKeyENS7_7OverlayENS7_15DocumentKeyHashENSF_8equal_toISH_EENSF_9allocatorINSF_4pairIKSH_SI_EEEEEE",
            "__ZN8firebase9firestore3api19CollectionReferenceC1ENS0_5model12ResourcePathENSt3__110shared_ptrINS1_9FirestoreEEE",
            "__ZN8firebase9firestore4core19ArrayContainsFilterC2ERKNS0_5model9FieldPathENS0_6nanopb13SharedMessageINS0_26_google_firestore_v1_ValueEEE",
            "__ZN8firebase9firestore5local10LocalStore5StartEv",
            "__ZNK8firebase9firestore4core11FieldFilter3Rep12IsInequalityEv",
            "__ZNK8firebase9firestore4core15CompositeFilter3Rep13IsConjunctionEv",
            "__ZN8firebase9firestore5model14CompareNumbersERKNS0_26_google_firestore_v1_ValueES4_",
            "__ZN8firebase9firestore6remote9Datastore21IsPermanentWriteErrorERKNS0_4util6StatusE",
            "__ZN8firebase9firestore4core10SyncEngine22HandleCredentialChangeERKNS0_11credentials4UserE",
            "__ZN8firebase9firestore5model15MutableDocument20SetHasLocalMutationsEv",
            "__ZNK8firebase9firestore5local15LocalSerializer14DecodeDocumentEPNS0_6nanopb6ReaderERNS0_29_google_firestore_v1_DocumentEb",
            "__ZNK8firebase9firestore38_google_firestore_v1_AggregationResult8ToStringEi",
            "__ZN8firebase9Timestamp13FromTimePointENSt3__16chrono10time_pointINS2_12system_clockENS2_8durationIxNS1_5ratioILl1ELl1000000EEEEEEE",
            "__ZN8firebase9firestore5local18LevelDbPersistenceD0Ev",
            "__ZN8firebase9firestore6remote19GrpcStreamingReaderC1ENSt3__110unique_ptrIN4grpc13ClientContextENS3_14default_deleteIS6_EEEENS4_INS5_23ClientAsyncReaderWriterINS5_10ByteBufferESB_EENS7_ISC_EEEERKNS3_10shared_ptrINS0_4util10AsyncQueueEEEPNS1_14GrpcConnectionERKSB_",
            "__ZN8firebase9firestore5local26MemoryDocumentOverlayCache24RemoveOverlaysForBatchIdEi",
            "__ZNK8firebase9firestore5model13MutationBatch23ApplyToLocalDocumentSetERNSt3__113unordered_mapINS1_11DocumentKeyENS1_17OverlayedDocumentENS1_15DocumentKeyHashENS3_8equal_toIS5_EENS3_9allocatorINS3_4pairIKS5_S6_EEEEEE",
            "__ZNK8firebase9firestore20_google_api_HttpRule8ToStringEi",
            "__ZN8firebase9firestore5local20LevelDbMutationQueue38AllMutationBatchesAffectingDocumentKeyERKNS0_5model11DocumentKeyE",
            "__ZN8firebase9firestore4core17TransactionRunner22HandleTransactionErrorERKNSt3__110shared_ptrINS1_11TransactionEEENS0_4util6StatusE",
            "__ZN8firebase9firestore6remote18ExponentialBackoffC2ERKNSt3__110shared_ptrINS0_4util10AsyncQueueEEENS5_7TimerIdEdNS3_6chrono8durationIxNS3_5ratioILl1ELl1000EEEEESF_",
            "__ZNK8firebase9firestore3api16SnapshotMetadata4HashEv",
            "__ZNK8firebase9firestore5local18LevelDbBundleCache17GetBundleMetadataERKNSt3__112basic_stringIcNS3_11char_traitsIcEENS3_9allocatorIcEEEE",
            "__ZNK8firebase9firestore4util4Path10IsAbsoluteEv",
            "__ZN8firebase9firestore5local18LevelDbBundleCacheC2EPNS1_18LevelDbPersistenceEPNS1_15LocalSerializerE",
            "__ZNK8firebase9firestore3api16DocumentSnapshot17internal_documentEv",
            "__ZN8firebase9firestore5local17MemoryPersistence22set_reference_delegateENSt3__110unique_ptrINS1_17ReferenceDelegateENS3_14default_deleteIS5_EEEE",
            "__ZN8firebase9firestore5model10DatabaseIdC1ENSt3__112basic_stringIcNS3_11char_traitsIcEENS3_9allocatorIcEEEES9_",
            "__ZN8firebase9firestore6remote21WatchChangeAggregator16ApplyBloomFilterERKNS1_11BloomFilterERKNS1_26ExistenceFilterWatchChangeEi",
            "__ZNK8firebase9firestore4core5Query19MatchesAllDocumentsEv",
            "__ZN8firebase9firestore5local25MemoryRemoteDocumentCache23RemoveOrphanedDocumentsEPNS1_26MemoryLruReferenceDelegateEx",
            "__ZN8firebase9firestore5local27LevelDbLruReferenceDelegate12RemoveTargetERKNS1_10TargetDataE",
            "__ZN8firebase9firestore5local10LocalStore13ReleaseTargetEi",
            "__ZN8firebase9firestore5local27LevelDbLruReferenceDelegate13RemoveTargetsExRKNSt3__113unordered_mapIiNS1_10TargetDataENS3_4hashIiEENS3_8equal_toIiEENS3_9allocatorINS3_4pairIKiS5_EEEEEE",
            "__ZN8firebase9firestore5local17LevelDbVersionKey3KeyEv",
            "__ZNK8firebase9firestore5local27LevelDbDocumentOverlayCache27ForEachKeyInCollectionGroupEN4absl12lts_2022062311string_viewEiNSt3__18functionIFNS2_16ForEachKeyActionEONS1_25LevelDbDocumentOverlayKeyEEEE",
            "__ZNK8firebase9firestore4util10ComparatorINSt3__112basic_stringIcNS3_11char_traitsIcEENS3_9allocatorIcEEEEE7CompareERKS9_SC_",
            "__ZNK8firebase9firestore3api13QuerySnapshot14internal_queryEv",
            "__ZN8firebase9firestore6remote21WatchChangeAggregator32GetCurrentDocumentCountForTargetEi",
            "__ZN8firebase9firestore4util11ExecutorStd8ScheduleENSt3__16chrono8durationIxNS3_5ratioILl1ELl1000EEEEEiONS3_8functionIFvvEEE",
            "__ZNK8firebase9firestore3api16DocumentSnapshot11document_idEv",
            "__ZNK8firebase9firestore5model18TargetIndexMatcher14MatchesOrderByERKNS0_4core7OrderByERKNS1_7SegmentE",
            "__ZN8firebase9firestore5local19LevelDbIndexManager25EncodeDirectionalElementsERKNS0_5model10FieldIndexERKNS3_8DocumentE",
            "__ZN8firebase9firestore4util10AsyncQueueC2ENSt3__110unique_ptrINS1_8ExecutorENS3_14default_deleteIS5_EEEE",
            "__ZNK8firebase9firestore5local19LevelDbIndexManager12GetMinOffsetERKNSt3__112basic_stringIcNS3_11char_traitsIcEENS3_9allocatorIcEEEE",
            "__ZN8firebase9firestore4util11LogSetLevelENS1_8LogLevelE",
            "__ZN8firebase9firestore5local19LevelDbIndexManager13AddIndexEntryERKNS0_5model8DocumentERKNS3_10FieldIndexERKNS0_5index10IndexEntryE",
            "__ZN8firebase9firestore5local13LevelDbOpenerC2ENS0_4core12DatabaseInfoENS0_4util4PathE",
            "__ZNK8firebase9firestore5local20LevelDbMutationQueue18mutation_queue_keyEv",
            "__ZN8firebase9firestore4core10SyncEngine14WriteMutationsEONSt3__16vectorINS0_5model8MutationENS3_9allocatorIS6_EEEENS3_8functionIFvNS0_4util6StatusEEEE",
            "__ZN8firebase9firestore4util11OrderedCode17ReadNumDecreasingEPN4absl12lts_2022062311string_viewEPy",
            "__ZN8firebase9firestore5local17MemoryPersistenceC2Ev",
            "__ZN8firebase9firestore5model13MutationBatchC2EiNS_9TimestampENSt3__16vectorINS1_8MutationENS4_9allocatorIS6_EEEES9_",
            "__ZNK8firebase9firestore5local11QueryEngine22AppendRemainingResultsERKNS0_5model11DocumentSetERKNS0_4core5QueryERKNS3_11IndexOffsetE",
            "__ZNK8firebase9firestore5local26LevelDbRemoteDocumentCache14GetAllExistingEONSt3__113unordered_mapINS0_5model11DocumentKeyENS5_15SnapshotVersionENS5_15DocumentKeyHashENS3_8equal_toIS6_EENS3_9allocatorINS3_4pairIKS6_S7_EEEEEERKNS0_4core5QueryERKNS4_IS6_NS5_7OverlayES8_SA_NSB_INSC_ISD_SM_EEEEEE",
            "__ZN8firebase9firestore5local21LevelDbQueryTargetKey9KeyPrefixEN4absl12lts_2022062311string_viewE",
            "__ZNK8firebase9firestore32_google_firestore_admin_v1_Index8ToStringEi",
            "__ZN8firebase9firestore3api19CollectionReferenceC2ENS0_5model12ResourcePathENSt3__110shared_ptrINS1_9FirestoreEEE",
            "__ZN8firebase9firestore4util8Schedule11PopBlockingEv",
            "__ZN8firebase9firestore6remote13GrpcUnaryCallD2Ev",
            "__ZN8firebase9firestore5model9NullValueEv",
            "__ZNK8firebase9firestore47_google_firestore_v1_StructuredQuery_Projection8ToStringEi",
            "__ZN8firebase9firestore6remote11WriteStreamC2ERKNSt3__110shared_ptrINS0_4util10AsyncQueueEEENS4_INS0_11credentials19CredentialsProviderINSA_9AuthTokenENSA_4UserEEEEENS4_INSB_INS3_12basic_stringIcNS3_11char_traitsIcEENS3_9allocatorIcEEEESL_EEEENS1_10SerializerEPNS1_14GrpcConnectionEPNS1_19WriteStreamCallbackE",
            "__ZN8firebase9firestore5model15MutableDocument12WithReadTimeERKNS1_15SnapshotVersionE",
            "__ZN8firebase9firestore5local20LevelDbMutationQueue18GetLastStreamTokenEv",
            "__ZNK8firebase9firestore5model14ArrayTransform8elementsEv",
            "__ZNK8firebase9firestore6remote6Stream19GetDebugDescriptionEv",
            "__ZNK8firebase9firestore35_google_firestore_v1_ListenResponse8ToStringEi",
            "__ZN8firebase9firestore6remote11RemoteStore17CreateTransactionEv",
            "__ZN8firebase9firestore5modellsERNSt3__113basic_ostreamIcNS2_11char_traitsIcEEEERKNS1_10DatabaseIdE",
            "__ZN8firebase9firestore5local26MemoryLruReferenceDelegate22GetSequenceNumberCountEv",
            "__ZN8firebase9firestore5local27LevelDbLruReferenceDelegate17CalculateByteSizeEv",
            "__ZN8firebase9firestore3api19MemoryCacheSettings20CopyMemoryGcSettingsERKNS1_30MemoryGargabeCollectorSettingsE",
            "__ZN8firebase9firestore5local18LevelDbPersistence6CreateENS0_4util4PathEiNS1_15LocalSerializerERKNS1_9LruParamsE",
            "__ZN8firebase9firestore6remote11WatchStream20NotifyStreamResponseERKN4grpc10ByteBufferE",
            "__ZN8firebase9firestore6bundle12BundleReader15ReadNextElementEv",
            "__ZNK8firebase9firestore5local19LevelDbIndexManager11CreateRangeERKNS0_5index10IndexEntryES6_NSt3__16vectorIS4_NS7_9allocatorIS4_EEEE",
            "__ZNK8firebase9firestore5local15LocalSerializer19EncodeMaybeDocumentERKNS0_5model15MutableDocumentE",
            "__ZN8firebase9firestore3apieqERKNS1_14DocumentChangeES4_",
            "__ZN8firebase9firestore5model14ArrayTransformC1ENS1_18TransformOperation4TypeENS0_6nanopb7MessageINS0_31_google_firestore_v1_ArrayValueEEE",
            "__ZN8firebase9firestore6nanopb12StringReaderC1ERKNSt3__16vectorIhNS3_9allocatorIhEEEE",
            "__ZN8firebase9firestore4core15CompositeFilter3RepC2EONSt3__16vectorINS1_6FilterENS4_9allocatorIS6_EEEENS2_8OperatorE",
            "__ZN8firebase9firestore5modellsERNSt3__113basic_ostreamIcNS2_11char_traitsIcEEEENS1_15MutableDocument13DocumentStateE",
            "__ZNK8firebase9firestore6remote21WriteStreamSerializer13ParseResponseEPNS0_6nanopb6ReaderE",
            "__ZN8firebase9firestore5local17MemoryPersistence23GetDocumentOverlayCacheERKNS0_11credentials4UserE",
            "__ZN8firebase9firestore4util4Task6RetainEv",
            "__ZN8firebase9firestore5local17MemoryPersistence11RunInternalEN4absl12lts_2022062311string_viewENSt3__18functionIFvvEEE",
            "__ZNK8firebase9firestore59_google_firestore_v1_AggregationResult_AggregateFieldsEntry8ToStringEi",
            "__ZNK8firebase9firestore4core5Query19FindOpInsideFiltersERKNSt3__16vectorINS1_11FieldFilter8OperatorENS3_9allocatorIS6_EEEE",
            "__ZN8firebase9firestore5local20LevelDbMutationQueue18ParseMutationBatchEN4absl12lts_2022062311string_viewE",
            "__ZN8firebase9firestore12EnumToStringENS0_57_google_firestore_v1_StructuredQuery_UnaryFilter_OperatorE",
            "__ZN8firebase9firestore4util6Status6UpdateERKS2_",
            "__ZN8firebase9firestore5local19LevelDbIndexManager19GenerateIndexRangesEiN4absl12lts_202206238optionalINSt3__16vectorINS0_26_google_firestore_v1_ValueENS6_9allocatorIS8_EEEEEERKNS7_INS6_12basic_stringIcNS6_11char_traitsIcEENS9_IcEEEENS9_ISH_EEEEbSL_bSJ_",
            "__ZNK8firebase9Timestamp14ValidateBoundsEv",
            "__ZNK8firebase9firestore5model11SetMutation3Rep16ApplyToLocalViewERNS1_15MutableDocumentEN4absl12lts_202206238optionalINS1_9FieldMaskEEERKNS_9TimestampE",
            "__ZN8firebase9firestore5modeleqERKNS1_11DocumentKeyES4_",
            "__ZN8firebase9firestore5local20LevelDbMutationQueue32AllMutationBatchesAffectingQueryERKNS0_4core5QueryE",
            "__ZN8firebase9firestore11credentials9AuthTokenC2ENSt3__112basic_stringIcNS3_11char_traitsIcEENS3_9allocatorIcEEEENS1_4UserE",
            "__ZN8firebase9firestore5local10LocalStore12ExecuteQueryERKNS0_4core5QueryEb",
            "__ZNK8firebase9firestore49_google_firestore_v1_TransactionOptions_ReadWrite8ToStringEi",
            "__ZNK8firebase9firestore6nanopb10ByteString11ToHexStringEv",
            "__ZNK8firebase9firestore5local17MemoryPersistence23current_sequence_numberEv",
            "__ZN8firebase9firestore5model24ServerTimestampTransformC2Ev",
            "__ZN8firebase9firestore6remote10GrpcStream7OnWriteEv",
            "__ZNK8firebase9firestore4core15CompositeFilter3Rep11CanonicalIdEv",
            "__ZN8firebase9firestore3api9Firestore8GetBatchEv",
            "__ZN8firebase9firestore5local10LocalStore17StartIndexManagerEv",
            "__ZN8firebase9firestore6remote18OnlineStateTracker22HandleWatchStreamStartEv",
            "__ZNK8firebase9firestore5local15LocalSerializer14EncodeMutationERKNS0_5model8MutationE",
            "__ZNK8firebase9firestore5local27LevelDbDocumentOverlayCache25CountEntriesWithKeyPrefixERKNSt3__112basic_stringIcNS3_11char_traitsIcEENS3_9allocatorIcEEEE",
            "__ZN8firebase9firestore5model9DeepCloneERKNS0_29_google_firestore_v1_MapValueE",
            "__ZN8firebase9firestore5local32LevelDbRemoteDocumentReadTimeKey9KeyPrefixERKNS0_5model12ResourcePathENS3_15SnapshotVersionE",
            "__ZN8firebase9firestore5model11DocumentKey13IsDocumentKeyERKNS1_12ResourcePathE",
            "__ZN8firebase9firestore4corelsERNSt3__113basic_ostreamIcNS2_11char_traitsIcEEEERKNS1_9DirectionE",
            "__ZN8firebase9firestore6nanopb14MakeStringViewEPK16pb_bytes_array_s",
            "__ZN8firebase9firestore6nanopb14MakeBytesArrayEPKvm",
            "__ZN8firebase9firestore5local19MemoryMutationQueue16AddMutationBatchERKNS_9TimestampEONSt3__16vectorINS0_5model8MutationENS6_9allocatorIS9_EEEESD_",
            "__ZN8firebase9firestore5model10IsNaNValueERKNS0_26_google_firestore_v1_ValueE",
            "__ZN8firebase9firestore6remote21WatchChangeAggregatorC1EPNS1_22TargetMetadataProviderE",
            "__ZN8firebase9firestore6nanopb10MakeStringEPK16pb_bytes_array_s",
            "__ZN8firebase9firestore3api14LoadBundleTask10SetSuccessENS1_22LoadBundleTaskProgressE",
            "__ZN8firebase9firestore5local18LevelDbTargetCache9GetTargetERKNS0_4core6TargetE",
            "__ZNK8firebase9firestore3api9Firestore16MakeDatabaseInfoEv",
            "__ZN8firebase9firestore5local36LevelDbIndexEntryDocumentKeyIndexKey6DecodeEN4absl12lts_2022062311string_viewE",
            "__ZN8firebase9firestore5model11IsNullValueERKNS0_26_google_firestore_v1_ValueE",
            "__ZN8firebase9firestore5model14VerifyMutationC2ENS1_11DocumentKeyENS1_12PreconditionE",
            "__ZN8firebase9firestore5local20LevelDbIndexStateKey9KeyPrefixEN4absl12lts_2022062311string_viewE",
            "__ZN8firebase9firestore6remote6Stream15CancelIdleCheckEv",
            "__ZN8firebase9firestore5local18LevelDbTargetCache4SaveERKNS1_10TargetDataE",
            "__ZNK8firebase9firestore4core5Query14MatchesFiltersERKNS0_5model8DocumentE",
            "__ZN8firebase9firestore5local10LocalStore13GetNamedQueryERKNSt3__112basic_stringIcNS3_11char_traitsIcEENS3_9allocatorIcEEEE",
            "__ZN8firebase9firestore5model11ObjectValueC1Ev",
            "__ZNK8firebase9firestore6remote10Serializer18DecodeResourceNameEPNS0_4util11ReadContextEN4absl12lts_2022062311string_viewE",
            "__ZN8firebase9firestore4util12MakeCallbackEU13block_pointerFvP7NSErrorE",
            "__ZN8firebase9firestore5model11DocumentKeyC1EONS1_12ResourcePathE",
            "__ZN8firebase17TimestampInternal4HashERKNS_9TimestampE",
            "__ZN8firebase9firestore6remote19ConnectivityMonitor15InvokeCallbacksENS2_13NetworkStatusE",
            "__ZNK8firebase9firestore4core12ViewSnapshot8ToStringEv",
            "__ZNK8firebase9firestore3api14DocumentChange4HashEv",
            "__ZN8firebase9firestore4core12EventManager26AddSnapshotsInSyncListenerERKNSt3__110shared_ptrINS1_13EventListenerINS0_4util5EmptyEEEEE",
            "__ZN8firebase9firestore6remote10GrpcStream15FinishAndNotifyERKNS0_4util6StatusE",
            "__ZNK8firebase9firestore5local18LocalDocumentsView12ComputeViewsENS0_9immutable9SortedMapINS0_5model11DocumentKeyENS5_15MutableDocumentENS0_4util10ComparatorIS6_EEEEONSt3__113unordered_mapIS6_NS5_7OverlayENS5_15DocumentKeyHashENSC_8equal_toIS6_EENSC_9allocatorINSC_4pairIKS6_SE_EEEEEERKNS3_9SortedSetIS6_SA_EE",
            "__ZN8firebase9firestore5model17LowerBoundCompareERKNS0_26_google_firestore_v1_ValueEbS4_b",
            "__ZNK8firebase9firestore5model11DocumentKey4pathEv",
            "__ZN8firebase9firestore5model8RefValueERKNS1_10DatabaseIdERKNS1_11DocumentKeyE",
            "__ZN8firebase9TimestampC1Exi",
            "__ZN8firebase9firestore4util6Status12SetMovedFromEv",
            "__ZN8firebase9firestore6remote11WatchStream15UnwatchTargetIdEi",
            "__ZN8firebase9firestore4core19KeyFieldNotInFilterC2ERKNS0_5model9FieldPathENS0_6nanopb13SharedMessageINS0_26_google_firestore_v1_ValueEEE",
            "__ZN8firebase9firestore5local25MemoryRemoteDocumentCache15SetIndexManagerEPNS1_12IndexManagerE",
            "__ZNK8firebase9firestore4util11ExecutorStd19CurrentExecutorNameEv",
            "__ZN8firebase9firestore5local11DescribeKeyERKNSt3__112basic_stringIcNS2_11char_traitsIcEENS2_9allocatorIcEEEE",
            "__ZN8firebase9firestore4core21DocumentViewChangeSet9AddChangeEONS1_18DocumentViewChangeE",
            "__ZN8firebase9firestore6remote19DatastoreSerializerC2ERKNS0_4core12DatabaseInfoE",
            "__ZN8firebase9firestore5local11DescribeKeyEPKc",
            "__ZN8firebase9firestore6remote11RemoteStore16HandleWriteErrorERKNS0_4util6StatusE",
            "__ZN8firebase9firestore5local19MemoryMutationQueue14IndexOfBatchIdEi",
            "__ZN8firebase9firestore5local28MemoryEagerReferenceDelegate22OnTransactionCommittedEv",
            "__ZN8firebase9firestore3apieqERKNS1_23PersistentCacheSettingsES4_",
            "__ZN8firebase9firestore6remote9Datastore24ResumeRpcWithCredentialsERKNSt3__18functionIFvRKNS0_4util8StatusOrINS0_11credentials9AuthTokenEEERKNS3_12basic_stringIcNS3_11char_traitsIcEENS3_9allocatorIcEEEEEEE",
            "__ZN8firebase9firestore6remote14GrpcCompletion17WaitUntilOffQueueEv",
            "__ZNK8firebase9firestore4core7OrderBy8ToStringEv",
            "__ZN8firebase9firestore5local19LevelDbIndexManager5StartEv",
            "__ZN8firebase9firestore5local10LocalStore21ConfigureFieldIndexesENSt3__16vectorINS0_5model10FieldIndexENS3_9allocatorIS6_EEEE",
            "__ZNK8firebase9firestore3api5Query7OrderByENS0_5model9FieldPathEb",
            "__ZN8firebase9firestore5model18DocumentComparator5ByKeyEv",
            "__ZNK8firebase9firestore3api5Query7StartAtENS0_4core5BoundE",
            "__ZNK8firebase9firestore6remote11BloomFilter11GetBitIndexERKNS2_4HashEi",
            "__ZNK8firebase9firestore20_google_protobuf_Any8ToStringEi",
            "__ZNK8firebase9firestore42_google_firestore_v1_UpdateDocumentRequest8ToStringEi",
            "__ZN8firebase9firestore11credentials4UserC2Ev",
            "__ZN8firebase9firestore4util11OrderedCode24WriteSignedNumIncreasingEPNSt3__112basic_stringIcNS3_11char_traitsIcEENS3_9allocatorIcEEEEx",
            "__ZN8firebase9firestore6remote10Serializer13DecodeVersionEPNS0_4util11ReadContextERKNS0_26_google_protobuf_TimestampE",
            "__ZN8firebase9firestore4core10SyncEngine6ListenENS1_5QueryE",
            "__ZN8firebase9firestore6remote11TargetState26RecordPendingTargetRequestEv",
            "__ZN8firebase9firestore3api8Settings24set_local_cache_settingsERKNS1_18LocalCacheSettingsE",
            "__ZN8firebase9firestore5local17MemoryTargetCache9GetTargetERKNS0_4core6TargetE",
            "__ZN8firebase9firestore4core10SyncEngine21HandleSuccessfulWriteENS0_5model19MutationBatchResultE",
            "__ZNK8firebase9firestore3api5Query8DescribeENS0_4core11FieldFilter8OperatorE",
            "__ZNK8firebase9firestore5model14DeleteMutation3Rep21ApplyToRemoteDocumentERNS1_15MutableDocumentERKNS1_14MutationResultE",
            "__ZN8firebase9firestore5modellsERNSt3__113basic_ostreamIcNS2_11char_traitsIcEEEERKNS1_8MutationE",
            "__ZNK8firebase9firestore3api10WriteBatch17ValidateReferenceERKNS1_17DocumentReferenceE",
            "__ZN8firebase9firestore8GeoPointC2Edd",
            "__ZN8firebase9firestore4core17TargetIdGeneratorC1ENS1_19TargetIdGeneratorIdEi",
            "__ZNK8firebase9firestore4core5Bound19SortsBeforeDocumentERKNSt3__16vectorINS1_7OrderByENS3_9allocatorIS5_EEEERKNS0_5model8DocumentE",
            "__ZN8firebase9firestore6remote29FirebaseMetadataProviderAppleC1EP6FIRApp",
            "__ZN8firebase9firestore6nanopb10ByteStringD1Ev",
            "__ZNK8firebase9firestore5local27LevelDbDocumentOverlayCache22ForEachKeyInCollectionERKNS0_5model12ResourcePathEiNSt3__18functionIFvONS1_25LevelDbDocumentOverlayKeyEEEE",
            "__ZNK8firebase9firestore5model14ArrayTransform9array_repEv",
            "__ZNK8firebase9firestore3api19CollectionReference8DocumentERKNSt3__112basic_stringIcNS3_11char_traitsIcEENS3_9allocatorIcEEEE",
            "__ZN8firebase9firestore4util10Filesystem9CreateDirERKNS1_4PathE",
            "__ZN8firebase9firestore11credentials9AuthTokenC2Ev",
            "__ZN8firebase9firestore5local27LevelDbDocumentOverlayCache11SaveOverlayEiRKNS0_5model11DocumentKeyERKNS3_8MutationE",
            "__ZN8firebase9firestore6nanopb8internal8ToStringEd",
            "__ZNK8firebase9firestore5model8Mutation3Rep22ServerTransformResultsERKNS1_11ObjectValueERKNS0_6nanopb7MessageINS0_31_google_firestore_v1_ArrayValueEEE",
            "__ZNK8firebase9firestore6remote10Serializer9DecodeKeyEPNS0_4util11ReadContextERKNS0_5model12ResourcePathE",
            "__ZNK8firebase9firestore6remote21WriteStreamSerializer27EncodeWriteMutationsRequestERKNSt3__16vectorINS0_5model8MutationENS3_9allocatorIS6_EEEERKNS0_6nanopb10ByteStringE",
            "__ZN8firebase9firestore4core15FirestoreClient21DeleteAllFieldIndexesEv",
            "__ZN8firebase9firestore6remote9DatastoreC1ERKNS0_4core12DatabaseInfoERKNSt3__110shared_ptrINS0_4util10AsyncQueueEEENS8_INS0_11credentials19CredentialsProviderINSE_9AuthTokenENSE_4UserEEEEENS8_INSF_INS7_12basic_stringIcNS7_11char_traitsIcEENS7_9allocatorIcEEEESP_EEEEPNS1_19ConnectivityMonitorEPNS1_24FirebaseMetadataProviderE",
            "__ZN8firebase9firestorelsERNSt3__113basic_ostreamIcNS1_11char_traitsIcEEEERKNS0_8GeoPointE",
            "__ZN8firebase9firestore4core4View12ApplyChangesERKNS1_19ViewDocumentChangesERKN4absl12lts_202206238optionalINS0_6remote12TargetChangeEEEb",
            "__ZN8firebase9firestore5modeleqERKNS1_18TransformOperationES4_",
            "__ZNK8firebase9firestore63_google_firestore_v1_StructuredAggregationQuery_Aggregation_Avg8ToStringEi",
            "__ZN8firebase9firestore6bundle12BundleLoader18AddElementInternalERKNS1_13BundleElementE",
            "__ZNK8firebase9firestore5model13PatchMutation3Rep6EqualsERKNS1_8Mutation3RepE",
            "__ZNK8firebase9firestore33_firestore_client_UnknownDocument8ToStringEi",
            "__ZN8firebase9firestore5local27LevelDbLruReferenceDelegate17garbage_collectorEv",
            "__ZN8firebase9firestore3api17DocumentReferenceC1ENS0_5model12ResourcePathENSt3__110shared_ptrINS1_9FirestoreEEE",
            "__ZN8firebase9firestore6remote21WatchChangeAggregator22FilterRemovedDocumentsERKNS1_11BloomFilterEi",
            "__ZN8firebase9firestore11credentials9AuthTokenC1ENSt3__112basic_stringIcNS3_11char_traitsIcEENS3_9allocatorIcEEEENS1_4UserE",
            "__ZN8firebase9firestore6remote18OnlineStateTracker11UpdateStateENS0_5model11OnlineStateE",
            "__ZN8firebase9firestore5local26MemoryLruReferenceDelegate30EnumerateTargetSequenceNumbersERKNSt3__18functionIFvxEEE",
            "__ZN8firebase9firestore5local19LruGarbageCollectorC2EPNS1_11LruDelegateENS1_9LruParamsE",
            "__ZN8firebase9firestore3api10WriteBatch6CommitENSt3__18functionIFvNS0_4util6StatusEEEE",
            "__ZN8firebase9firestore5model13PatchMutationC2ENS1_11DocumentKeyENS1_11ObjectValueENS1_9FieldMaskENS1_12PreconditionE",
            "__ZN8firebase9firestore4util28StatusCheckOpHelperOutOfLineERKNS1_6StatusEPKc",
            "__ZN8firebase9firestore4util6Status8CausedByERKS2_",
            "__ZNK8firebase9firestore5model11DocumentKey18HasCollectionGroupEN4absl12lts_2022062311string_viewE",
            "__ZNK8firebase9firestore3api5Query40ValidateHasExplicitOrderByForLimitToLastEv",
            "__ZNK8firebase9firestore4util4Path12HasExtensionERKS2_",
            "__ZNK8firebase9firestore5model14VerifyMutation3Rep16ApplyToLocalViewERNS1_15MutableDocumentEN4absl12lts_202206238optionalINS1_9FieldMaskEEERKNS_9TimestampE",
            "__ZN8firebase9firestore6remote10GrpcStream8ShutdownEv",
            "__ZN8firebase9firestore4util10LogicUtils28ComputeDistributedNormalFormERKNS0_4core6FilterE",
            "__ZN8firebase9firestore5local17MemoryPersistence23WithLruGarbageCollectorENS1_9LruParamsENSt3__110unique_ptrINS1_5SizerENS4_14default_deleteIS6_EEEE",
            "__ZN8firebase9firestore5local28MemoryEagerReferenceDelegate23RemoveMutationReferenceERKNS0_5model11DocumentKeyE",
            "__ZN8firebase9firestore5local36LevelDbIndexEntryDocumentKeyIndexKey9KeyPrefixEiN4absl12lts_2022062311string_viewES5_",
            "__ZN8firebase9firestore5model11SetMutationC2ENS1_11DocumentKeyENS1_11ObjectValueENS1_12PreconditionENSt3__16vectorINS1_14FieldTransformENS6_9allocatorIS8_EEEE",
            "__ZN8firebase9firestore4core8InFilterC1ERKNS0_5model9FieldPathENS0_6nanopb13SharedMessageINS0_26_google_firestore_v1_ValueEEE",
            "__ZNK8firebase9firestore5index10IndexEntry9CompareToERKS2_",
            "__ZN8firebase9firestore4util12SecureRandomclEv",
            "__ZN8firebase9firestore4util19ExecutorLibdispatchC1EPU28objcproto17OS_dispatch_queue8NSObject",
            "__ZN8firebase9firestore5model12ResourcePath14FromStringViewEN4absl12lts_2022062311string_viewE",
            "__ZNK8firebase9firestore45_google_firestore_v1_BeginTransactionResponse8ToStringEi",
            "__ZNK8firebase9firestore6remote10Serializer29EncodeCompositeFilterOperatorENS0_4core15CompositeFilter8OperatorE",
            "__ZN8firebase9firestore3api5QueryC1ENS0_4core5QueryENSt3__110shared_ptrINS1_9FirestoreEEE",
            "__ZN8firebase9firestore5local17MemoryTargetCache15AddMatchingKeysERKNS0_9immutable9SortedSetINS0_5model11DocumentKeyENS0_4util10ComparatorIS6_EEEEi"
          ]
        }
      },
      {
        "data": {
          "weak": [
            "__ZTSNSt3__120__shared_ptr_emplaceIN8firebase9firestore6remote11WriteStreamENS_9allocatorIS4_EEEE",
            "__ZTSNSt3__120__shared_ptr_pointerIPN8firebase9firestore9immutable4impl10FixedArrayINS_4pairINS2_5model8DocumentENS2_4util5EmptyEEEEENS_10shared_ptrIKSC_E27__shared_ptr_default_deleteISF_SC_EENS_9allocatorISC_EEEE",
            "__ZTSN8firebase9firestore6remote17WatchTargetChangeE",
            "__ZTSNSt3__120__shared_ptr_emplaceIKN8firebase9firestore4core19ArrayContainsFilter3RepENS_9allocatorIS6_EEEE",
            "__ZTINSt3__120__shared_ptr_emplaceIN8firebase9firestore6remote11WatchStreamENS_9allocatorIS4_EEEE",
            "__ZTSN4grpc8internal27InterceptorBatchMethodsImplE",
            "__ZTINSt3__120__shared_ptr_pointerIPN8firebase9firestore9immutable4impl10FixedArrayINS_4pairINS2_5model8DocumentENS2_4util5EmptyEEEEENS_10shared_ptrIKSC_E27__shared_ptr_default_deleteISF_SC_EENS_9allocatorISC_EEEE",
            "__ZTSNSt3__120__shared_ptr_emplaceIN8firebase9firestore6remote9DatastoreENS_9allocatorIS4_EEEE",
            "__ZTSN8firebase9firestore6remote19DocumentWatchChangeE",
            "__ZTSNSt3__120__shared_ptr_emplaceIN8firebase9firestore9immutable4impl8LlrbNodeINS2_5model8DocumentENS2_4util5EmptyEE3RepENS_9allocatorISB_EEEE",
            "__ZTINSt3__110__function6__baseIFvN8firebase9firestore5model11OnlineStateEEEE",
            "__ZTSN8firebase9firestore5model18TransformOperation3RepE",
            "__ZTSNSt3__120__shared_ptr_emplaceIN8firebase9firestore11credentials35FirebaseAppCheckCredentialsProvider8ContentsENS_9allocatorIS5_EEEE",
            "__ZTSNSt3__120__shared_ptr_emplaceIN8firebase9firestore4core22ArrayContainsAnyFilter3RepENS_9allocatorIS5_EEEE",
            "__ZTINSt3__110__function6__baseIFvN8firebase9firestore3api16DocumentSnapshotEEEE",
            "__ZTINSt3__120__shared_ptr_emplaceIN8firebase9firestore5model11ObjectValueENS_9allocatorIS4_EEEE",
            "__ZTINSt3__120__shared_ptr_emplaceIN8firebase9firestore9immutable4impl10FixedArrayINS_4pairINS2_5local20DocumentKeyReferenceENS2_4util5EmptyEEEEENS_9allocatorISC_EEEE",
            "__ZTSNSt3__118basic_stringstreamIcNS_11char_traitsIcEENS_9allocatorIcEEEE",
            "__ZTSN8firebase9firestore6remote28FirebaseMetadataProviderNoOpE",
            "__ZTINSt3__110__function6__baseIFvRKNS_10shared_ptrIN8firebase9firestore6remote14GrpcCompletionEEEEEE",
            "__ZTSNSt3__110__function6__baseIFvPN4grpc13ClientContextEPNS2_8internal4CallEbPNS5_25CallOpSendInitialMetadataEPPNS5_18CallOpSetInterfaceEPvPNS2_6StatusESD_EEE",
            "__ZTSNSt3__120__shared_ptr_emplaceIN8firebase9firestore5model11SetMutation3RepENS_9allocatorIS5_EEEE",
            "__ZTIN8firebase9firestore6bundle14BundleCallbackE",
            "__ZTSNSt3__110shared_ptrIN8firebase9firestore9immutable4impl8LlrbNodeINS2_5model11DocumentKeyENS2_4util5EmptyEE3RepEE27__shared_ptr_default_deleteISB_SB_EE",
            "__ZTIN4grpc32ClientAsyncReaderWriterInterfaceINS_10ByteBufferES1_EE",
            "__ZTSNSt3__110__function6__baseIFN8firebase9firestore4util16ComparisonResultERKNS3_5model10FieldIndexES9_EEE",
            "__ZTSNSt3__120__shared_ptr_emplaceIN8firebase9firestore6bundle12BundleReaderENS_9allocatorIS4_EEEE",
            "__ZTINSt3__110__function6__baseIFvRKN8firebase9firestore4util8StatusOrINS3_11credentials9AuthTokenEEERKNS_12basic_stringIcNS_11char_traitsIcEENS_9allocatorIcEEEEEEE",
            "__ZTSNSt3__120__shared_ptr_emplaceINS_8functionIFvRKN8firebase9firestore4util12TestingHooks27ExistenceFilterMismatchInfoEEEENS_9allocatorISA_EEEE",
            "__ZTIN4grpc8internal9CallOpSetINS0_17CallOpRecvMessageINS_10ByteBufferEEENS0_22CallOpClientRecvStatusENS0_8CallNoOpILi3EEENS6_ILi4EEENS6_ILi5EEENS6_ILi6EEEEE",
            "__ZTINSt3__120__shared_ptr_emplaceIN8firebase9firestore9immutable4impl10FixedArrayINS_4pairINS2_5model11DocumentKeyENS2_4util5EmptyEEEEENS_9allocatorISC_EEEE",
            "__ZTINSt3__120__shared_ptr_emplaceIN8firebase9firestore6nanopb7MessageINS2_31_google_firestore_v1_ArrayValueEEENS_9allocatorIS6_EEEE",
            "__ZTIN4grpc8internal9CallOpSetINS0_25CallOpRecvInitialMetadataENS0_17CallOpRecvMessageINS_10ByteBufferEEENS0_8CallNoOpILi3EEENS6_ILi4EEENS6_ILi5EEENS6_ILi6EEEEE",
            "__ZTSNSt3__120__shared_ptr_emplaceINS_12basic_stringIcNS_11char_traitsIcEENS_9allocatorIcEEEENS4_IS6_EEEE",
            "__ZTINSt3__120__shared_ptr_pointerIPN8firebase9firestore9immutable4impl8LlrbNodeINS2_5model11DocumentKeyENS2_4core18DocumentViewChangeEE3RepENS_10shared_ptrISB_E27__shared_ptr_default_deleteISB_SB_EENS_9allocatorISB_EEEE",
            "__ZTSN8firebase9firestore6remote19ConnectivityMonitorE",
            "__ZTIN8nlohmann6detail21output_string_adapterIcNSt3__112basic_stringIcNS2_11char_traitsIcEENS2_9allocatorIcEEEEEE",
            "__ZTINSt3__120__shared_ptr_emplaceIN8firebase9firestore6remote9Datastore15CallCredentialsENS_9allocatorIS5_EEEE",
            "__ZTSN8firebase9firestore4core18AsyncEventListenerINS0_4util5EmptyEEE",
            "__ZTSNSt3__120__shared_ptr_emplaceIN8firebase9firestore3api9FirestoreENS_9allocatorIS4_EEEE",
            "__ZTSN8firebase9firestore11credentials19CredentialsProviderINSt3__112basic_stringIcNS3_11char_traitsIcEENS3_9allocatorIcEEEES9_EE",
            "__ZTINSt3__115basic_stringbufIcNS_11char_traitsIcEENS_9allocatorIcEEEE",
            "__ZTINSt3__120__shared_ptr_emplaceIKN8firebase9firestore4core8InFilter3RepENS_9allocatorIS6_EEEE",
            "__ZTINSt3__120__shared_ptr_pointerIPN8firebase9firestore4util10AsyncQueueENS_10shared_ptrIS4_E27__shared_ptr_default_deleteIS4_S4_EENS_9allocatorIS4_EEEE",
            "__ZTSNSt3__120__shared_ptr_emplaceIN8firebase9firestore6remote11WatchStreamENS_9allocatorIS4_EEEE",
            "__ZTINSt3__110__function6__baseIFvN8firebase9firestore11credentials4UserEEEE",
            "__ZTSN4grpc8internal8CallNoOpILi2EEE",
            "__ZTIN4grpc23ClientAsyncReaderWriterINS_10ByteBufferES1_EE",
            "__ZTSNSt3__110shared_ptrIKN8firebase9firestore9immutable4impl10FixedArrayINS_4pairINS2_5model11DocumentKeyENS7_15MutableDocumentEEEEEE27__shared_ptr_default_deleteISC_SB_EE",
            "__ZTINSt3__120__shared_ptr_emplaceIKN8firebase9firestore4core14KeyFieldFilter3RepENS_9allocatorIS6_EEEE",
            "__ZTSN4grpc15CompletionQueueE",
            "__ZTSZN8firebase9firestore4core18AsyncEventListenerINS0_4util5EmptyEE7OnEventENS3_8StatusOrIS4_EEEUlvE_",
            "__ZTINSt3__110__function6__baseIFvN8firebase9firestore4util8StatusOrINS3_4core12ViewSnapshotEEEEEE",
            "__ZTINSt3__120__shared_ptr_emplaceIN8firebase9firestore5model14DeleteMutation3RepENS_9allocatorIS5_EEEE",
            "__ZTINSt3__120__shared_ptr_emplaceIN8firebase9firestore5model14VerifyMutation3RepENS_9allocatorIS5_EEEE",
            "__ZTIN8firebase9firestore4util17DirectoryIteratorE",
            "__ZTSNSt3__120__shared_ptr_emplaceIN8firebase9firestore4core11TransactionENS_9allocatorIS4_EEEE",
            "__ZTINSt3__110__function6__baseIFvN8firebase9firestore4util6StatusEEEE",
            "__ZTSN4grpc32ClientAsyncReaderWriterInterfaceINS_10ByteBufferES1_EE",
            "__ZTINSt3__110__function6__baseIFNS_6vectorIN8firebase9firestore4core11FieldFilterENS_9allocatorIS6_EEEEvEEE",
            "__ZTINSt3__120__shared_ptr_emplaceIN8firebase9firestore4core13QueryListenerENS_9allocatorIS4_EEEE",
            "__ZTSNSt3__120__shared_ptr_pointerIPN8firebase9firestore9immutable4impl8LlrbNodeINS2_5model11DocumentKeyENS6_8DocumentEE3RepENS_10shared_ptrISA_E27__shared_ptr_default_deleteISA_SA_EENS_9allocatorISA_EEEE",
            "__ZTINSt3__120__shared_ptr_emplaceIN8firebase9firestore6remote14GrpcCompletionENS_9allocatorIS4_EEEE",
            "__ZTSNSt3__110__function6__baseIFvN8firebase9firestore11credentials4UserEEEE",
            "__ZTSN4grpc8internal21CallOpClientSendCloseE",
            "__ZTIN4grpc8internal21CallOpClientSendCloseE",
            "__ZTIN8firebase9firestore6remote19WatchStreamCallbackE",
            "__ZTIN8firebase9firestore4core18AsyncEventListenerINS0_4util5EmptyEEE",
            "__ZTSNSt3__110__function6__baseIFvRKN8firebase9firestore4util6StatusEEEE",
            "__ZTIN8firebase9firestore4core18AsyncEventListenerINS1_12ViewSnapshotEEE",
            "__ZTSNSt3__120__shared_ptr_emplaceIN8firebase9firestore9immutable4impl10FixedArrayINS_4pairINS2_5model11DocumentKeyENS7_7OverlayEEEEENS_9allocatorISB_EEEE",
            "__ZTSN8firebase9firestore4core13EventListenerINS0_4util5EmptyEEE",
            "__ZTSNSt3__120__shared_ptr_emplaceIN8firebase9firestore6nanopb7MessageINS2_26_google_firestore_v1_ValueEEENS_9allocatorIS6_EEEE",
            "__ZTSN4grpc8internal20AsyncWriterInterfaceINS_10ByteBufferEEE",
            "__ZTINSt3__120__shared_ptr_emplaceIN8firebase9firestore11credentials35FirebaseAppCheckCredentialsProviderENS_9allocatorIS4_EEEE",
            "__ZTIN4grpc8internal8CallNoOpILi3EEE",
            "__ZTIN4grpc34ClientAsyncResponseReaderInterfaceINS_10ByteBufferEEE",
            "__ZTSNSt3__120__shared_ptr_pointerIPN8firebase9firestore9immutable4impl10FixedArrayINS_4pairINS2_5model11DocumentKeyENS7_15MutableDocumentEEEEENS_10shared_ptrIKSB_E27__shared_ptr_default_deleteISE_SB_EENS_9allocatorISB_EEEE",
            "__ZTIN8firebase9firestore6remote18GrpcStreamObserverE",
            "__ZTSN8firebase9firestore4util10ByteStreamE",
            "__ZTSN4grpc8internal9CallOpSetINS0_17CallOpRecvMessageINS_10ByteBufferEEENS0_22CallOpClientRecvStatusENS0_8CallNoOpILi3EEENS6_ILi4EEENS6_ILi5EEENS6_ILi6EEEEE",
            "__ZTSN8firebase9firestore22FirestoreInternalErrorE",
            "__ZTSNSt3__120__shared_ptr_pointerIPN8firebase9firestore4util10AsyncQueueENS_10shared_ptrIS4_E27__shared_ptr_default_deleteIS4_S4_EENS_9allocatorIS4_EEEE",
            "__ZTINSt3__110__function6__baseIFvRKN8firebase9firestore4util6StatusEEEE",
            "__ZTINSt3__120__shared_ptr_pointerIPN8firebase9firestore9immutable4impl10FixedArrayINS_4pairINS2_5model11DocumentKeyENS2_4core18DocumentViewChangeEEEEENS_10shared_ptrIKSC_E27__shared_ptr_default_deleteISF_SC_EENS_9allocatorISC_EEEE",
            "__ZTSNSt3__119basic_ostringstreamIcNS_11char_traitsIcEENS_9allocatorIcEEEE",
            "__ZTIN8firebase9firestore6bundle13BundleElementE",
            "__ZTSNSt3__110__function6__baseIFvN8firebase9firestore3api22LoadBundleTaskProgressEEEE",
            "__ZTIN8firebase9firestore5local11BundleCacheE",
            "__ZTIN8nlohmann6detail9exceptionE",
            "__ZTINSt3__110__function6__baseIFN8firebase9firestore4util16ComparisonResultERKNS3_5model10FieldIndexES9_EEE",
            "__ZTINSt3__120__shared_ptr_emplaceIN8firebase9firestore4util11ExecutorStd11SharedStateENS_9allocatorIS5_EEEE",
            "__ZTINSt3__110__function6__baseIFvN8firebase9firestore3api22LoadBundleTaskProgressEEEE",
            "__ZTIN8nlohmann6detail10type_errorE",
            "__ZTSN8firebase9firestore4core13EventListenerINS1_12ViewSnapshotEEE",
            "__ZTSNSt3__120__shared_ptr_pointerIPN8firebase9firestore9immutable4impl10FixedArrayINS_4pairINS2_5local20DocumentKeyReferenceENS2_4util5EmptyEEEEENS_10shared_ptrIKSC_E27__shared_ptr_default_deleteISF_SC_EENS_9allocatorISC_EEEE",
            "__ZTSN8firebase9firestore6bundle14BundleDocumentE",
            "__ZTINSt3__118basic_stringstreamIcNS_11char_traitsIcEENS_9allocatorIcEEEE",
            "__ZTINSt3__120__shared_ptr_emplaceIN8firebase9firestore9immutable4impl8LlrbNodeINS2_5model11DocumentKeyENS2_4util5EmptyEE3RepENS_9allocatorISB_EEEE",
            "__ZTSNSt3__110__function6__baseIFNS_6vectorIN8firebase9firestore4core7OrderByENS_9allocatorIS6_EEEEvEEE",
            "__ZTIN8firebase9firestore11credentials19CredentialsProviderINSt3__112basic_stringIcNS3_11char_traitsIcEENS3_9allocatorIcEEEES9_EE",
            "__ZTSFN8firebase9firestore4util16ComparisonResultERKNS0_5model10FieldIndexES6_E",
            "__ZTSN8firebase9firestore5model24ServerTimestampTransform3RepE",
            "__ZTIN8firebase9firestore6remote19ConnectivityMonitorE",
            "__ZTSNSt3__110__function6__baseIFvRKN8firebase9firestore5model10FieldIndexEEEE",
            "__ZTSN8firebase9firestore4core6Filter3RepE",
            "__ZTSNSt3__115basic_stringbufIcNS_11char_traitsIcEENS_9allocatorIcEEEE",
            "__ZTSNSt3__120__shared_ptr_emplaceIKN8firebase9firestore4core11NotInFilter3RepENS_9allocatorIS6_EEEE",
            "__ZTIN8firebase9firestore6remote24ConnectivityMonitorAppleE",
            "__ZTSNSt3__114default_deleteIN8firebase9firestore4core13EventListenerINS2_3api16DocumentSnapshotEEEEE",
            "__ZTSN4grpc8internal9CallOpSetINS0_25CallOpRecvInitialMetadataENS0_8CallNoOpILi2EEENS3_ILi3EEENS3_ILi4EEENS3_ILi5EEENS3_ILi6EEEEE",
            "__ZTSNSt3__114unary_functionIN8firebase9firestore4util6StatusEvEE",
            "__ZTINSt3__120__shared_ptr_pointerIPN8firebase9firestore9immutable4impl8LlrbNodeINS2_5model11DocumentKeyENS6_8DocumentEE3RepENS_10shared_ptrISA_E27__shared_ptr_default_deleteISA_SA_EENS_9allocatorISA_EEEE",
            "__ZTINSt3__120__shared_ptr_emplaceIKN8firebase9firestore4core11NotInFilter3RepENS_9allocatorIS6_EEEE",
            "__ZTIN8nlohmann6detail11parse_errorE",
            "__ZTINSt3__110__function6__baseIFvN8firebase9firestore4core5QueryEbEEE",
            "__ZTINSt3__110__function6__baseIFvN8firebase9firestore4util8StatusOrINS_12basic_stringIcNS_11char_traitsIcEENS_9allocatorIcEEEEEEEEE",
            "__ZTIN8firebase9firestore4util10ByteStreamE",
            "__ZTIN8firebase9firestore6remote11WatchChangeE",
            "__ZTSNSt3__110__function35__maybe_derive_from_binary_functionIFvN8firebase9firestore4util6StatusEEEE",
            "__ZTSNSt3__120__shared_ptr_emplaceIN8firebase9firestore4util18ThreadSafeMemoizerINS2_4core6TargetEEENS_9allocatorIS7_EEEE",
            "__ZTSNSt3__120__shared_ptr_emplaceIN8firebase9firestore6remote14GrpcCompletionENS_9allocatorIS4_EEEE",
            "__ZTSN8firebase9firestore6bundle13BundleElementE",
            "__ZTSNSt3__110__function6__funcINS_8functionIFvN8firebase9firestore4util6StatusEEEENS_9allocatorIS8_EEFvRKS6_EEE",
            "__ZTSNSt3__120__shared_ptr_pointerIPN8firebase9firestore9immutable4impl8LlrbNodeINS2_5model11DocumentKeyENS6_7OverlayEE3RepENS_10shared_ptrISA_E27__shared_ptr_default_deleteISA_SA_EENS_9allocatorISA_EEEE",
            "__ZTINSt3__120__shared_ptr_pointerIPN8firebase9firestore4core13EventListenerINS2_3api16DocumentSnapshotEEENS_14default_deleteIS7_EENS_9allocatorIS7_EEEE",
            "__ZTSN8firebase9firestore5local13MutationQueueE",
            "__ZTSN8firebase9firestore6nanopb6ReaderE",
            "__ZTINSt3__120__shared_ptr_pointerIPN8firebase9firestore9immutable4impl10FixedArrayINS_4pairINS2_5model11DocumentKeyENS7_7OverlayEEEEENS_10shared_ptrIKSB_E27__shared_ptr_default_deleteISE_SB_EENS_9allocatorISB_EEEE",
            "__ZTSNSt3__110__function6__baseIFN8firebase9firestore5local27LevelDbDocumentOverlayCache16ForEachKeyActionEONS4_25LevelDbDocumentOverlayKeyEEEE",
            "__ZTIN8firebase9firestore22FirestoreInternalErrorE",
            "__ZTSNSt3__110shared_ptrIN8firebase9firestore9immutable4impl8LlrbNodeINS2_5model11DocumentKeyENS6_7OverlayEE3RepEE27__shared_ptr_default_deleteISA_SA_EE",
            "__ZTIN8firebase9firestore6remote19DocumentWatchChangeE",
            "__ZTIN8firebase9firestore5local5SizerE",
            "__ZTSNSt3__120__shared_ptr_pointerIPN8firebase9firestore4core15FirestoreClientENS_10shared_ptrIS4_E27__shared_ptr_default_deleteIS4_S4_EENS_9allocatorIS4_EEEE",
            "__ZTIN4grpc18GrpcLibraryCodegenE",
            "__ZTSNSt3__110__function6__baseIFvN8firebase9firestore4util6StatusEEEE",
            "__ZTSNSt3__120__shared_ptr_pointerIPN8firebase9firestore4core13EventListenerINS2_3api16DocumentSnapshotEEENS_14default_deleteIS7_EENS_9allocatorIS7_EEEE",
            "__ZTIN8firebase9firestore6remote17WatchTargetChangeE",
            "__ZTINSt3__110__function6__baseIFvvEEE",
            "__ZTSN8firebase9firestore4core13EventListenerINS0_3api16DocumentSnapshotEEE",
            "__ZTINSt3__120__shared_ptr_emplaceIN8firebase9firestore11credentials31FirebaseAuthCredentialsProvider8ContentsENS_9allocatorIS5_EEEE",
            "__ZTSNSt3__120__shared_ptr_emplaceIN8firebase9firestore4core18AsyncEventListenerINS2_4util5EmptyEEENS_9allocatorIS7_EEEE",
            "__ZTSNSt3__120__shared_ptr_pointerIPN8firebase9firestore9immutable4impl8LlrbNodeINS2_5model11DocumentKeyENS2_4core18DocumentViewChangeEE3RepENS_10shared_ptrISB_E27__shared_ptr_default_deleteISB_SB_EENS_9allocatorISB_EEEE",
            "__ZTINSt3__110__function6__baseIFvNS_6vectorIN4grpc10ByteBufferENS_9allocatorIS4_EEEEEEE",
            "__ZTINSt3__120__shared_ptr_pointerIPN8firebase9firestore9immutable4impl10FixedArrayINS_4pairINS2_5local20DocumentKeyReferenceENS2_4util5EmptyEEEEENS_10shared_ptrIKSC_E27__shared_ptr_default_deleteISF_SC_EENS_9allocatorISC_EEEE",
            "__ZTINSt3__120__shared_ptr_emplaceIKN8firebase9firestore5model24ServerTimestampTransform3RepENS_9allocatorIS6_EEEE",
            "__ZTSNSt3__120__shared_ptr_emplaceIN8firebase9firestore5model13PatchMutation3RepENS_9allocatorIS5_EEEE",
            "__ZTINSt3__110__function6__baseIFvbRKNS_10shared_ptrIN8firebase9firestore6remote14GrpcCompletionEEEEEE",
            "__ZTSN4grpc8internal20AsyncReaderInterfaceINS_10ByteBufferEEE",
            "__ZTSN8firebase9firestore5index27DirectionalIndexByteEncoderE",
            "__ZTSN8firebase9firestore11credentials19CredentialsProviderINS1_9AuthTokenENS1_4UserEEE",
            "__ZTINSt3__114basic_ifstreamIcNS_11char_traitsIcEEEE",
            "__ZTINSt3__120__shared_ptr_emplaceIN8firebase9firestore9immutable4impl8LlrbNodeINS2_5model11DocumentKeyENS6_7OverlayEE3RepENS_9allocatorISA_EEEE",
            "__ZTSN8firebase9firestore5local40LevelDbDocumentOverlayCollectionIndexKeyE",
            "__ZTINSt3__110__function6__baseIFvRKN8firebase9firestore4util8StatusOrIN4grpc10ByteBufferEEEEEE",
            "__ZTINSt3__120__shared_ptr_emplaceIKN8firebase9firestore4core19ArrayContainsFilter3RepENS_9allocatorIS6_EEEE",
            "__ZTSN8firebase9firestore6bundle14BundleMetadataE",
            "__ZTINSt3__18functionIFvN8firebase9firestore4util6StatusEEEE",
            "__ZTSZN8firebase9firestore4core18AsyncEventListenerINS1_12ViewSnapshotEE7OnEventENS0_4util8StatusOrIS3_EEEUlvE_",
            "__ZTSNSt3__110__function6__baseIFvN8firebase9firestore4util8StatusOrINS4_5EmptyEEEEEE",
            "__ZTSNSt3__123enable_shared_from_thisIN8firebase9firestore6remote9DatastoreEEE",
            "__ZTIN8firebase9firestore6remote19WriteStreamCallbackE",
            "__ZTSNSt3__110__function6__baseIFvN8firebase9firestore3api14DocumentChangeEEEE",
            "__ZTSNSt3__110__function6__baseIFvN8firebase9firestore6remote19ConnectivityMonitor13NetworkStatusEEEE",
            "__ZTIN8firebase9firestore5local11PersistenceE",
            "__ZTIN8firebase9firestore4util13PlatformErrorE",
            "__ZTIN4grpc16ChannelInterfaceE",
            "__ZTSNSt3__114basic_ifstreamIcNS_11char_traitsIcEEEE",
            "__ZTSNSt3__110__function6__baseIFN8firebase9firestore4util16ComparisonResultERKNS3_5index10IndexEntryES9_EEE",
            "__ZTINSt3__120__shared_ptr_emplaceIN8firebase9firestore6bundle12BundleReaderENS_9allocatorIS4_EEEE",
            "__ZTINSt3__120__shared_ptr_emplaceIN8firebase9firestore9immutable4impl8LlrbNodeINS2_5model8DocumentENS2_4util5EmptyEE3RepENS_9allocatorISB_EEEE",
            "__ZTSNSt3__120__shared_ptr_emplaceIKN8firebase9firestore4core19KeyFieldNotInFilter3RepENS_9allocatorIS6_EEEE",
            "__ZTIN4grpc8internal18CallOpSetInterfaceE",
            "__ZTSNSt3__120__shared_ptr_pointerIPN8firebase9firestore9immutable4impl8LlrbNodeINS2_5local20DocumentKeyReferenceENS2_4util5EmptyEE3RepENS_10shared_ptrISB_E27__shared_ptr_default_deleteISB_SB_EENS_9allocatorISB_EEEE",
            "__ZTINSt3__120__shared_ptr_pointerIPN8firebase9firestore9immutable4impl10FixedArrayINS_4pairINS2_5model11DocumentKeyENS2_4util5EmptyEEEEENS_10shared_ptrIKSC_E27__shared_ptr_default_deleteISF_SC_EENS_9allocatorISC_EEEE",
            "__ZTSNSt3__120__shared_ptr_emplaceIN8firebase9firestore4util18ThreadSafeMemoizerINS_6vectorINS2_4core11FieldFilterENS_9allocatorIS7_EEEEEENS8_ISB_EEEE",
            "__ZTSN8nlohmann6detail16invalid_iteratorE",
            "__ZTIN4grpc8internal9CallOpSetINS0_25CallOpSendInitialMetadataENS0_17CallOpSendMessageENS0_21CallOpClientSendCloseENS0_25CallOpRecvInitialMetadataENS0_17CallOpRecvMessageINS_10ByteBufferEEENS0_22CallOpClientRecvStatusEEE",
            "__ZTSNSt3__110shared_ptrIKN8firebase9firestore9immutable4impl10FixedArrayINS_4pairINS2_5local20DocumentKeyReferenceENS2_4util5EmptyEEEEEE27__shared_ptr_default_deleteISD_SC_EE",
            "__ZTSNSt3__120__shared_ptr_emplaceIN8firebase9firestore9immutable4impl8LlrbNodeINS2_5model11DocumentKeyENS2_4util5EmptyEE3RepENS_9allocatorISB_EEEE",
            "__ZTIN4grpc8internal20AsyncWriterInterfaceINS_10ByteBufferEEE",
            "__ZTIN8firebase9firestore4core13EventListenerINS0_3api13QuerySnapshotEEE",
            "__ZTIN4grpc8internal18InterceptedChannelE",
            "__ZTINSt3__120__shared_ptr_pointerIPN8firebase9firestore4core15FirestoreClientENS_10shared_ptrIS4_E27__shared_ptr_default_deleteIS4_S4_EENS_9allocatorIS4_EEEE",
            "__ZTSN4grpc12experimental23InterceptorBatchMethodsE",
            "__ZTSN8firebase9firestore5index26DescendingIndexByteEncoderE",
            "__ZTIN8firebase9firestore6bundle14BundleDocumentE",
            "__ZTSNSt3__120__shared_ptr_emplaceIKN8firebase9firestore4core16KeyFieldInFilter3RepENS_9allocatorIS6_EEEE",
            "__ZTSNSt3__18functionIFvN8firebase9firestore4util6StatusEEEE",
            "__ZTIN8firebase9firestore6remote22TargetMetadataProviderE",
            "__ZTSNSt3__120__shared_ptr_pointerIPN8firebase9firestore9immutable4impl8LlrbNodeINS2_5model8DocumentENS2_4util5EmptyEE3RepENS_10shared_ptrISB_E27__shared_ptr_default_deleteISB_SB_EENS_9allocatorISB_EEEE",
            "__ZTINSt3__120__shared_ptr_emplaceIN8firebase9firestore3api9FirestoreENS_9allocatorIS4_EEEE",
            "__ZTIN8firebase9firestore5local45LevelDbDocumentOverlayCollectionGroupIndexKeyE",
            "__ZTIN8firebase9firestore4core18SyncEngineCallbackE",
            "__ZTINSt3__114unary_functionIN8firebase9firestore4util6StatusEvEE",
            "__ZTINSt3__110__function6__baseIFNS_12basic_stringIcNS_11char_traitsIcEENS_9allocatorIcEEEEvEEE",
            "__ZTINSt3__113basic_filebufIcNS_11char_traitsIcEEEE",
            "__ZTIN4grpc8internal20AsyncReaderInterfaceINS_10ByteBufferEEE",
            "__ZTINSt3__120__shared_ptr_emplaceIN8firebase9firestore9immutable4impl10FixedArrayINS_4pairINS2_5model8DocumentENS2_4util5EmptyEEEEENS_9allocatorISC_EEEE",
            "__ZTIN4grpc8internal25CallOpRecvInitialMetadataE",
            "__ZTSNSt3__120__shared_ptr_emplaceIN8firebase9firestore9immutable4impl8LlrbNodeINS2_5model11DocumentKeyENS6_8DocumentEE3RepENS_9allocatorISA_EEEE",
            "__ZTSN4grpc8internal9CallOpSetINS0_25CallOpRecvInitialMetadataENS0_22CallOpClientRecvStatusENS0_8CallNoOpILi3EEENS4_ILi4EEENS4_ILi5EEENS4_ILi6EEEEE",
            "__ZTIN8firebase9firestore4util17UnderlyingNSErrorE",
            "__ZTSNSt3__110__function6__baseIFvRKN8firebase9firestore4util8StatusOrINS3_5model11ObjectValueEEEEEE",
            "__ZTINSt3__120__shared_ptr_emplaceIN8firebase9firestore9immutable4impl8LlrbNodeINS2_5model11DocumentKeyENS6_8DocumentEE3RepENS_9allocatorISA_EEEE",
            "__ZTSNSt3__120__shared_ptr_emplaceIKN8firebase9firestore3api27PersistentCacheIndexManagerENS_9allocatorIS5_EEEE",
            "__ZTINSt3__120__shared_ptr_emplaceINS_8functionIFvRKN8firebase9firestore4util12TestingHooks27ExistenceFilterMismatchInfoEEEENS_9allocatorISA_EEEE",
            "__ZTINSt3__110__function6__baseIFvRKN8firebase9firestore4util8StatusOrINS_6vectorINS3_5model8DocumentENS_9allocatorIS8_EEEEEEEEE",
            "__ZTSNSt3__114default_deleteIN8firebase9firestore4util8ExecutorEEE",
            "__ZTSNSt3__120__shared_ptr_pointerIPN8firebase9firestore4util8ExecutorENS_14default_deleteIS4_EENS_9allocatorIS4_EEEE",
            "__ZTINSt3__110__function6__baseIFvN8firebase9firestore4util8StatusOrINS4_5EmptyEEEEEE",
            "__ZTSN8firebase9firestore5local29MemoryOverlayMigrationManagerE",
            "__ZTSN8nlohmann6detail11parse_errorE",
            "__ZTSN4grpc8internal8CallNoOpILi6EEE",
            "__ZTINSt3__110__function6__baseIFN8firebase9firestore5local27LevelDbDocumentOverlayCache16ForEachKeyActionEONS4_25LevelDbDocumentOverlayKeyEEEE",
            "__ZTINSt3__110__function6__baseIFN8firebase9firestore4core6TargetEvEEE",
            "__ZTSNSt3__114default_deleteIN8firebase9firestore4core13EventListenerINS3_12ViewSnapshotEEEEE",
            "__ZTIZN8firebase9firestore4core18AsyncEventListenerINS1_12ViewSnapshotEE7OnEventENS0_4util8StatusOrIS3_EEEUlvE_",
            "__ZTSNSt3__110__function34__maybe_derive_from_unary_functionIFvN8firebase9firestore4util6StatusEEEE",
            "__ZTINSt3__123enable_shared_from_thisIN8firebase9firestore6remote6StreamEEE",
            "__ZTSNSt3__110shared_ptrIKN8firebase9firestore9immutable4impl10FixedArrayINS_4pairINS2_5model8DocumentENS2_4util5EmptyEEEEEE27__shared_ptr_default_deleteISD_SC_EE",
            "__ZTSNSt3__110__function6__baseIFvRKNS_10shared_ptrIN8firebase9firestore6remote14GrpcCompletionEEEEEE",
            "__ZTSN8firebase9firestore6bundle10NamedQueryE",
            "__ZTINSt3__120__shared_ptr_emplaceIN8firebase9firestore4core17TransactionRunnerENS_9allocatorIS4_EEEE",
            "__ZTINSt3__120__shared_ptr_emplaceIN8firebase9firestore4core18AsyncEventListenerINS2_4util5EmptyEEENS_9allocatorIS7_EEEE",
            "__ZTINSt3__120__shared_ptr_emplaceIN8firebase9firestore4util18ThreadSafeMemoizerINS2_4core6TargetEEENS_9allocatorIS7_EEEE",
            "__ZTIN4grpc8internal29ClientAsyncStreamingInterfaceE",
            "__ZTIN8firebase9firestore4core6Filter3RepE",
            "__ZTINSt3__110__function6__baseIFvRKN8firebase9firestore4util6StatusEbEEE",
            "__ZTSNSt3__120__shared_ptr_emplaceIN8firebase9firestore6remote6Stream15CallCredentialsENS_9allocatorIS5_EEEE",
            "__ZTINSt3__123enable_shared_from_thisIN8firebase9firestore4core18AsyncEventListenerINS2_4util5EmptyEEEEE",
            "__ZTSN4grpc8internal18CompletionQueueTagE",
            "__ZTSN4grpc8internal29ClientAsyncStreamingInterfaceE",
            "__ZTSNSt3__120__shared_ptr_emplaceIN8firebase9firestore11credentials31FirebaseAuthCredentialsProviderENS_9allocatorIS4_EEEE",
            "__ZTINSt3__110__function6__baseIFvxEEE",
            "__ZTINSt3__120__shared_ptr_pointerIPN8firebase9firestore4core13EventListenerINS2_3api13QuerySnapshotEEENS_14default_deleteIS7_EENS_9allocatorIS7_EEEE",
            "__ZTSNSt3__110__function6__baseIFvRKN8firebase9firestore5model11DocumentKeyExEEE",
            "__ZTINSt3__120__shared_ptr_emplaceIN8firebase9firestore4core22ArrayContainsAnyFilter3RepENS_9allocatorIS5_EEEE",
            "__ZTSNSt3__110shared_ptrIKN8firebase9firestore9immutable4impl10FixedArrayINS_4pairINS2_5model11DocumentKeyENS7_8DocumentEEEEEE27__shared_ptr_default_deleteISC_SB_EE",
            "__ZTINSt3__120__shared_ptr_emplaceIN8firebase9firestore9immutable4impl10FixedArrayINS_4pairINS2_5model11DocumentKeyENS7_8DocumentEEEEENS_9allocatorISB_EEEE",
            "__ZTSNSt3__120__shared_ptr_emplaceIKN8firebase9firestore5model24ServerTimestampTransform3RepENS_9allocatorIS6_EEEE",
            "__ZTSN4grpc8internal17CallOpSendMessageE",
            "__ZTINSt3__110__function6__baseIFvNS_12basic_stringIcNS_11char_traitsIcEENS_9allocatorIcEEEEEEE",
            "__ZTIN8firebase9firestore6remote19RemoteStoreCallbackE",
            "__ZTSN8firebase9firestore5local44LevelDbDocumentOverlayLargestBatchIdIndexKeyE",
            "__ZTINSt3__120__shared_ptr_emplaceIN8firebase9firestore5model13PatchMutation3RepENS_9allocatorIS5_EEEE",
            "__ZTIN8firebase9firestore6nanopb6ReaderE",
            "__ZTIZN8firebase9firestore4core18AsyncEventListenerINS0_4util5EmptyEE7OnEventENS3_8StatusOrIS4_EEEUlvE_",
            "__ZTINSt3__120__shared_ptr_emplaceIN8firebase9firestore4core18AsyncEventListenerINS3_12ViewSnapshotEEENS_9allocatorIS6_EEEE",
            "__ZTSNSt3__120__shared_ptr_emplaceIN8firebase9firestore9immutable4impl10FixedArrayINS_4pairINS2_5model11DocumentKeyENS2_4util5EmptyEEEEENS_9allocatorISC_EEEE",
            "__ZTIN4grpc8internal8CallNoOpILi4EEE",
            "__ZTSNSt3__110__function6__baseIFvRKN8firebase9firestore5index10IndexEntryEEEE",
            "__ZTSN8firebase9firestore5index25AscendingIndexByteEncoderE",
            "__ZTSNSt3__120__shared_ptr_emplaceIN8firebase9firestore5model25NumericIncrementTransform3RepENS_9allocatorIS5_EEEE",
            "__ZTIFN8firebase9firestore4util16ComparisonResultERKNS0_5model10FieldIndexES6_E",
            "__ZTSN8firebase9firestore6remote11WatchChangeE",
            "__ZTIN8firebase9firestore5local30LevelDbDocumentOverlayIndexKeyE",
            "__ZTINSt3__120__shared_ptr_emplaceIN8firebase9firestore6remote6Stream15CallCredentialsENS_9allocatorIS5_EEEE",
            "__ZTSNSt3__120__shared_ptr_emplaceIN8firebase9firestore9immutable4impl10FixedArrayINS_4pairINS2_5model11DocumentKeyENS7_8DocumentEEEEENS_9allocatorISB_EEEE",
            "__ZTSNSt3__120__shared_ptr_emplaceIN8firebase9firestore4core10SyncEngine9QueryViewENS_9allocatorIS5_EEEE",
            "__ZTSNSt3__110__function6__baseIFvNS_6vectorIN4grpc10ByteBufferENS_9allocatorIS4_EEEEEEE",
            "__ZTIN8firebase9firestore4core13EventListenerINS0_4util5EmptyEEE",
            "__ZTINSt3__120__shared_ptr_emplaceIKN8firebase9firestore4core16KeyFieldInFilter3RepENS_9allocatorIS6_EEEE",
            "__ZTIN8firebase9firestore6bundle23BundledDocumentMetadataE",
            "__ZTINSt3__120__shared_ptr_emplaceIKN8firebase9firestore4core11FieldFilter3RepENS_9allocatorIS6_EEEE",
            "__ZTINSt3__110__function6__baseIFvN8firebase9firestore4util8StatusOrINS3_11credentials9AuthTokenEEEEEE",
            "__ZTSN4grpc8internal9CallOpSetINS0_25CallOpRecvInitialMetadataENS0_17CallOpRecvMessageINS_10ByteBufferEEENS0_8CallNoOpILi3EEENS6_ILi4EEENS6_ILi5EEENS6_ILi6EEEEE",
            "__ZTSN4grpc23ClientAsyncReaderWriterINS_10ByteBufferES1_EE",
            "__ZTSN8nlohmann6detail12out_of_rangeE",
            "__ZTSNSt3__110__function6__funcIPFN8firebase9firestore4util16ComparisonResultERKNS3_5model10FieldIndexES9_ENS_9allocatorISB_EESA_EE",
            "__ZTIN8firebase9firestore6remote26ExistenceFilterWatchChangeE",
            "__ZTINSt3__120__shared_ptr_emplaceIN8firebase9firestore5model10DatabaseId3RepENS_9allocatorIS5_EEEE",
            "__ZTSNSt3__120__shared_ptr_emplaceIN8firebase9firestore9immutable4impl8LlrbNodeINS2_5local20DocumentKeyReferenceENS2_4util5EmptyEE3RepENS_9allocatorISB_EEEE",
            "__ZTSNSt3__120__shared_ptr_emplaceIN8firebase9firestore9immutable4impl8LlrbNodeINS2_5model11DocumentKeyENS6_15MutableDocumentEE3RepENS_9allocatorISA_EEEE",
            "__ZTINSt3__110__function6__baseIFvRKN8firebase9firestore4util8StatusOrINS3_5model11ObjectValueEEEEEE",
            "__ZTSNSt3__110__function6__baseIFvN8firebase9firestore4core5QueryEbEEE",
            "__ZTSN8firebase9firestore6remote19WatchStreamCallbackE",
            "__ZTINSt3__120__shared_ptr_pointerIPN8firebase9firestore9immutable4impl10FixedArrayINS_4pairINS2_5model11DocumentKeyENS7_8DocumentEEEEENS_10shared_ptrIKSB_E27__shared_ptr_default_deleteISE_SB_EENS_9allocatorISB_EEEE",
            "__ZTINSt3__110__function6__baseIFvN8firebase9firestore3api14DocumentChangeEEEE",
            "__ZTINSt3__120__shared_ptr_emplaceIN8firebase9firestore9immutable4impl8LlrbNodeINS2_5model11DocumentKeyENS6_15MutableDocumentEE3RepENS_9allocatorISA_EEEE",
            "__ZTSN8firebase9firestore4core16QueryEventSourceE",
            "__ZTINSt3__120__shared_ptr_emplaceIN8firebase9firestore4core11TransactionENS_9allocatorIS4_EEEE",
            "__ZTSNSt3__110__function6__baseIFN8firebase9firestore4core6TargetEvEEE",
            "__ZTSNSt3__110shared_ptrIN8firebase9firestore9immutable4impl8LlrbNodeINS2_5model8DocumentENS2_4util5EmptyEE3RepEE27__shared_ptr_default_deleteISB_SB_EE",
            "__ZTIN8firebase9firestore6remote8GrpcCallE",
            "__ZTIN4grpc8internal17CallOpSendMessageE",
            "__ZTSNSt3__110__function6__funcIZN8firebase9firestore4core18AsyncEventListenerINS4_12ViewSnapshotEE7OnEventENS3_4util8StatusOrIS6_EEEUlvE_NS_9allocatorISB_EEFvvEEE",
            "__ZTSN8firebase9firestore3api30MemoryGargabeCollectorSettingsE",
            "__ZTSNSt3__120__shared_ptr_emplaceIKN8firebase9firestore4core14KeyFieldFilter3RepENS_9allocatorIS6_EEEE",
            "__ZTSN4grpc8internal9CallOpSetINS0_25CallOpSendInitialMetadataENS0_17CallOpSendMessageENS0_21CallOpClientSendCloseENS0_8CallNoOpILi4EEENS5_ILi5EEENS5_ILi6EEEEE",
            "__ZTIN8firebase9firestore4core13EventListenerINS1_12ViewSnapshotEEE",
            "__ZTINSt3__120__shared_ptr_pointerIPN8firebase9firestore9immutable4impl8LlrbNodeINS2_5model11DocumentKeyENS6_7OverlayEE3RepENS_10shared_ptrISA_E27__shared_ptr_default_deleteISA_SA_EENS_9allocatorISA_EEEE",
            "__ZTSN4grpc8internal8CallNoOpILi5EEE",
            "__ZTIN4grpc8internal9CallOpSetINS0_25CallOpSendInitialMetadataENS0_17CallOpSendMessageENS0_21CallOpClientSendCloseENS0_8CallNoOpILi4EEENS5_ILi5EEENS5_ILi6EEEEE",
            "__ZTSN8firebase9firestore6remote22TargetMetadataProviderE",
            "__ZTIN8firebase9firestore6bundle14BundleMetadataE",
            "__ZTINSt3__120__shared_ptr_pointerIPN8firebase9firestore9immutable4impl8LlrbNodeINS2_5model11DocumentKeyENS2_4util5EmptyEE3RepENS_10shared_ptrISB_E27__shared_ptr_default_deleteISB_SB_EENS_9allocatorISB_EEEE",
            "__ZTIN8nlohmann6detail23output_adapter_protocolIcEE",
            "__ZTSN4grpc8internal17CallOpRecvMessageINS_10ByteBufferEEE",
            "__ZTSNSt3__120__shared_ptr_emplaceIN8firebase9firestore4core17TransactionRunnerENS_9allocatorIS4_EEEE",
            "__ZTSNSt3__110__function6__baseIFvNS_12basic_stringIcNS_11char_traitsIcEENS_9allocatorIcEEEEEEE",
            "__ZTSN8firebase9firestore5local11PersistenceE",
            "__ZTSNSt3__120__shared_ptr_emplaceIN8firebase9firestore9immutable4impl8LlrbNodeINS2_5model11DocumentKeyENS2_4core18DocumentViewChangeEE3RepENS_9allocatorISB_EEEE",
            "__ZTSNSt3__110__function6__funcIZN8firebase9firestore4core18AsyncEventListenerINS3_4util5EmptyEE7OnEventENS6_8StatusOrIS7_EEEUlvE_NS_9allocatorISB_EEFvvEEE",
            "__ZTSNSt3__120__shared_ptr_emplaceIN8firebase9firestore9immutable4impl8LlrbNodeINS2_5model11DocumentKeyENS6_7OverlayEE3RepENS_9allocatorISA_EEEE",
            "__ZTSN8firebase9firestore4core13EventListenerINS0_3api13QuerySnapshotEEE",
            "__ZTIN8firebase9firestore5index26DescendingIndexByteEncoderE",
            "__ZTINSt3__123enable_shared_from_thisIN8firebase9firestore4core18AsyncEventListenerINS3_12ViewSnapshotEEEEE",
            "__ZTSN8firebase9firestore4util17UnderlyingNSErrorE",
            "__ZTSNSt3__123enable_shared_from_thisIN8firebase9firestore4core18AsyncEventListenerINS2_4util5EmptyEEEEE",
            "__ZTSN8firebase9firestore3api18LocalCacheSettingsE",
            "__ZTSNSt3__120__shared_ptr_pointerIPN8firebase9firestore9immutable4impl8LlrbNodeINS2_5model11DocumentKeyENS6_15MutableDocumentEE3RepENS_10shared_ptrISA_E27__shared_ptr_default_deleteISA_SA_EENS_9allocatorISA_EEEE",
            "__ZTSN8firebase9firestore5local23OverlayMigrationManagerE",
            "__ZTIN8firebase9firestore4core13EventListenerINS0_3api16DocumentSnapshotEEE",
            "__ZTINSt3__120__shared_ptr_emplaceIN8firebase9firestore11credentials35FirebaseAppCheckCredentialsProvider8ContentsENS_9allocatorIS5_EEEE",
            "__ZTIN4grpc8internal8CallNoOpILi6EEE",
            "__ZTIN4grpc8internal25CallOpSendInitialMetadataE",
            "__ZTIN4grpc25ClientAsyncResponseReaderINS_10ByteBufferEEE",
            "__ZTSNSt3__110__function6__baseIFN8firebase9firestore4util16ComparisonResultERKNS3_5model8DocumentES9_EEE",
            "__ZTSN8firebase9firestore6remote24ConnectivityMonitorAppleE",
            "__ZTSNSt3__110shared_ptrIN8firebase9firestore4core15FirestoreClientEE27__shared_ptr_default_deleteIS4_S4_EE",
            "__ZTSNSt3__110shared_ptrIKN8firebase9firestore9immutable4impl10FixedArrayINS_4pairINS2_5model11DocumentKeyENS2_4util5EmptyEEEEEE27__shared_ptr_default_deleteISD_SC_EE",
            "__ZTSNSt3__120__shared_ptr_emplaceIN8firebase9firestore6remote9Datastore15CallCredentialsENS_9allocatorIS5_EEEE",
            "__ZTSNSt3__110shared_ptrIN8firebase9firestore9immutable4impl8LlrbNodeINS2_5local20DocumentKeyReferenceENS2_4util5EmptyEE3RepEE27__shared_ptr_default_deleteISB_SB_EE",
            "__ZTSZN8firebase9firestore4core13EventListenerINS1_12ViewSnapshotEE6CreateENSt3__18functionIFvNS0_4util8StatusOrIS3_EEEEEE21CallbackEventListener",
            "__ZTIN8firebase9firestore5local23OverlayMigrationManagerE",
            "__ZTSN8firebase9firestore6remote18GrpcStreamObserverE",
            "__ZTINSt3__110__function6__funcINS_8functionIFvN8firebase9firestore4util6StatusEEEENS_9allocatorIS8_EEFvRKS6_EEE",
            "__ZTIN4grpc8internal8CallNoOpILi2EEE",
            "__ZTINSt3__120__shared_ptr_emplaceIKNS_12basic_stringIcNS_11char_traitsIcEENS_9allocatorIcEEEENS4_IS7_EEEE",
            "__ZTSNSt3__120__shared_ptr_emplaceIN8firebase9firestore4util18ThreadSafeMemoizerINS_6vectorINS2_4core7OrderByENS_9allocatorIS7_EEEEEENS8_ISB_EEEE",
            "__ZTINSt3__110__function6__baseIFbPN8firebase9firestore5model10FieldIndexES6_EEE",
            "__ZTINSt3__120__shared_ptr_emplaceIN8firebase9firestore4util18ThreadSafeMemoizerINS_6vectorINS2_4core7OrderByENS_9allocatorIS7_EEEEEENS8_ISB_EEEE",
            "__ZTSN4grpc8internal8CallNoOpILi4EEE",
            "__ZTSNSt3__120__shared_ptr_emplaceIKN8firebase9firestore4core15CompositeFilter3RepENS_9allocatorIS6_EEEE",
            "__ZTSNSt3__110__function6__baseIFNS_12basic_stringIcNS_11char_traitsIcEENS_9allocatorIcEEEEvEEE",
            "__ZTSN8firebase9firestore4util17DirectoryIteratorE",
            "__ZTSN8firebase9firestore5local5SizerE",
            "__ZTSN8firebase9firestore5local17ReferenceDelegateE",
            "__ZTSNSt3__120__shared_ptr_emplaceIN8firebase9firestore4core13QueryListenerENS_9allocatorIS4_EEEE",
            "__ZTIN4grpc8internal8CallNoOpILi5EEE",
            "__ZTIN8firebase9firestore11credentials19CredentialsProviderINS1_9AuthTokenENS1_4UserEEE",
            "__ZTSNSt3__110shared_ptrIKN8firebase9firestore9immutable4impl10FixedArrayINS_4pairINS2_5model11DocumentKeyENS7_7OverlayEEEEEE27__shared_ptr_default_deleteISC_SB_EE",
            "__ZTIN8firebase9firestore5local11TargetCacheE",
            "__ZTINSt3__120__shared_ptr_emplaceIN8firebase9firestore6remote9DatastoreENS_9allocatorIS4_EEEE",
            "__ZTSNSt3__120__shared_ptr_emplaceIN8firebase9firestore6nanopb7MessageINS2_31_google_firestore_v1_ArrayValueEEENS_9allocatorIS6_EEEE",
            "__ZTSN8nlohmann6detail10type_errorE",
            "__ZTSNSt3__117bad_function_callE",
            "__ZTIN8firebase9firestore5local12IndexManagerE",
            "__ZTSN8firebase9firestore5local45LevelDbDocumentOverlayCollectionGroupIndexKeyE",
            "__ZTINSt3__110__function6__baseIFN8firebase9firestore4util16ComparisonResultERKNS3_5index10IndexEntryES9_EEE",
            "__ZTSNSt3__110__function6__baseIFvN8firebase9firestore4util8StatusOrINS_12basic_stringIcNS_11char_traitsIcEENS_9allocatorIcEEEEEEEEE",
            "__ZTINSt3__120__shared_ptr_emplaceIN8firebase9firestore6remote11WriteStreamENS_9allocatorIS4_EEEE",
            "__ZTSNSt3__120__shared_ptr_pointerIPN8firebase9firestore9immutable4impl10FixedArrayINS_4pairINS2_5model11DocumentKeyENS2_4core18DocumentViewChangeEEEEENS_10shared_ptrIKSC_E27__shared_ptr_default_deleteISF_SC_EENS_9allocatorISC_EEEE",
            "__ZTINSt3__120__shared_ptr_pointerIPN8firebase9firestore9immutable4impl10FixedArrayINS_4pairINS2_5model11DocumentKeyENS7_15MutableDocumentEEEEENS_10shared_ptrIKSB_E27__shared_ptr_default_deleteISE_SB_EENS_9allocatorISB_EEEE",
            "__ZTIN8firebase9firestore3api30MemoryGargabeCollectorSettingsE",
            "__ZTSNSt3__120__shared_ptr_emplaceIKN8firebase9firestore4core8InFilter3RepENS_9allocatorIS6_EEEE",
            "__ZTINSt3__110__function6__baseIFvRKN8firebase9firestore5model11DocumentKeyExEEE",
            "__ZTSNSt3__110__function6__baseIFvRKN8firebase9firestore4util8StatusOrINS3_11credentials9AuthTokenEEERKNS_12basic_stringIcNS_11char_traitsIcEENS_9allocatorIcEEEEEEE",
            "__ZTIZN8firebase9firestore4core13EventListenerINS0_4util5EmptyEE6CreateENSt3__18functionIFvNS3_8StatusOrIS4_EEEEEE21CallbackEventListener",
            "__ZTINSt3__120__shared_ptr_emplaceIN8firebase9firestore9immutable4impl10FixedArrayINS_4pairINS2_5model11DocumentKeyENS2_4core18DocumentViewChangeEEEEENS_9allocatorISC_EEEE",
            "__ZTIN4grpc8internal17CallOpRecvMessageINS_10ByteBufferEEE",
            "__ZTINSt3__117bad_function_callE",
            "__ZTSN8firebase9firestore18FirestoreExceptionE",
            "__ZTINSt3__120__shared_ptr_emplaceIN8nlohmann6detail21output_string_adapterIcNS_12basic_stringIcNS_11char_traitsIcEENS_9allocatorIcEEEEEENS7_ISA_EEEE",
            "__ZTINSt3__120__shared_ptr_emplaceIN8firebase9firestore4util18ThreadSafeMemoizerINS_6vectorINS2_4core11FieldFilterENS_9allocatorIS7_EEEEEENS8_ISB_EEEE",
            "__ZTSNSt3__110__function6__baseIFvN8firebase9firestore3api16DocumentSnapshotEEEE",
            "__ZTIN4grpc8internal18CompletionQueueTagE",
            "__ZTSNSt3__120__shared_ptr_emplaceIN8firebase9firestore4core18AsyncEventListenerINS3_12ViewSnapshotEEENS_9allocatorIS6_EEEE",
            "__ZTINSt3__110__function6__funcIZN8firebase9firestore4core18AsyncEventListenerINS3_4util5EmptyEE7OnEventENS6_8StatusOrIS7_EEEUlvE_NS_9allocatorISB_EEFvvEEE",
            "__ZTSNSt3__120__shared_ptr_emplaceIN8firebase9firestore5model14VerifyMutation3RepENS_9allocatorIS5_EEEE",
            "__ZTSNSt3__120__shared_ptr_emplaceIN8firebase9firestore9immutable4impl10FixedArrayINS_4pairINS2_5model8DocumentENS2_4util5EmptyEEEEENS_9allocatorISC_EEEE",
            "__ZTSNSt3__120__shared_ptr_emplaceIN8firebase9firestore5model14DeleteMutation3RepENS_9allocatorIS5_EEEE",
            "__ZTSNSt3__110__function6__baseIFvPN4grpc13ClientContextEPNS2_8internal4CallEPNS5_25CallOpSendInitialMetadataEPvEEE",
            "__ZTIN4grpc12experimental23InterceptorBatchMethodsE",
            "__ZTINSt3__120__shared_ptr_emplaceIN8firebase9firestore5model25NumericIncrementTransform3RepENS_9allocatorIS5_EEEE",
            "__ZTINSt3__120__shared_ptr_emplaceIKN8firebase9firestore5model14ArrayTransform3RepENS_9allocatorIS6_EEEE",
            "__ZTSNSt3__110__function6__baseIFvRKN8firebase9firestore4util8StatusOrIN4grpc10ByteBufferEEEEEE",
            "__ZTSNSt3__123enable_shared_from_thisIN8firebase9firestore4core18AsyncEventListenerINS3_12ViewSnapshotEEEEE",
            "__ZTSNSt3__120__shared_ptr_emplaceIKNS_12basic_stringIcNS_11char_traitsIcEENS_9allocatorIcEEEENS4_IS7_EEEE",
            "__ZTSNSt3__120__shared_ptr_pointerIPN8firebase9firestore4core13EventListenerINS2_3api13QuerySnapshotEEENS_14default_deleteIS7_EENS_9allocatorIS7_EEEE",
            "__ZTINSt3__110__function35__maybe_derive_from_binary_functionIFvN8firebase9firestore4util6StatusEEEE",
            "__ZTIN4grpc15CompletionQueueE",
            "__ZTINSt3__120__shared_ptr_emplaceIN8firebase9firestore4core10SyncEngine9QueryViewENS_9allocatorIS5_EEEE",
            "__ZTIN8firebase9firestore4core16QueryEventSourceE",
            "__ZTINSt3__119basic_ostringstreamIcNS_11char_traitsIcEENS_9allocatorIcEEEE",
            "__ZTSN8firebase9firestore6remote8GrpcCallE",
            "__ZTINSt3__110__function6__baseIFvRKN8firebase9firestore5model10FieldIndexEEEE",
            "__ZTSNSt3__120__shared_ptr_pointerIPN8firebase9firestore9immutable4impl8LlrbNodeINS2_5model11DocumentKeyENS2_4util5EmptyEE3RepENS_10shared_ptrISB_E27__shared_ptr_default_deleteISB_SB_EENS_9allocatorISB_EEEE",
            "__ZTINSt3__123enable_shared_from_thisIN8firebase9firestore6remote9DatastoreEEE",
            "__ZTSZN8firebase9firestore4core13EventListenerINS0_4util5EmptyEE6CreateENSt3__18functionIFvNS3_8StatusOrIS4_EEEEEE21CallbackEventListener",
            "__ZTIN8firebase9firestore18FirestoreExceptionE",
            "__ZTINSt3__120__shared_ptr_emplaceIKN8firebase9firestore4core15CompositeFilter3RepENS_9allocatorIS6_EEEE",
            "__ZTIN4grpc8internal9CallOpSetINS0_25CallOpRecvInitialMetadataENS0_22CallOpClientRecvStatusENS0_8CallNoOpILi3EEENS4_ILi4EEENS4_ILi5EEENS4_ILi6EEEEE",
            "__ZTSNSt3__110__function6__baseIFvNS_10shared_ptrIN8firebase9firestore4core11TransactionEEENS_8functionIFvNS4_4util6StatusEEEEEEE",
            "__ZTSNSt3__110shared_ptrIN8firebase9firestore4util10AsyncQueueEE27__shared_ptr_default_deleteIS4_S4_EE",
            "__ZTINSt3__110__function6__baseIFvON8firebase9firestore5local25LevelDbDocumentOverlayKeyEEEE",
            "__ZTSNSt3__110__function6__baseIFvN8firebase9firestore4util8StatusOrINS3_11credentials9AuthTokenEEEEEE",
            "__ZTSNSt3__110shared_ptrIN8firebase9firestore9immutable4impl8LlrbNodeINS2_5model11DocumentKeyENS6_15MutableDocumentEE3RepEE27__shared_ptr_default_deleteISA_SA_EE",
            "__ZTSNSt3__120__shared_ptr_emplaceIN8firebase9firestore4util11ExecutorStd11SharedStateENS_9allocatorIS5_EEEE",
            "__ZTSN4grpc18GrpcLibraryCodegenE",
            "__ZTINSt3__120__shared_ptr_pointerIPN8firebase9firestore4util8ExecutorENS_14default_deleteIS4_EENS_9allocatorIS4_EEEE",
            "__ZTINSt3__120__shared_ptr_emplaceIN8firebase9firestore11credentials31FirebaseAuthCredentialsProviderENS_9allocatorIS4_EEEE",
            "__ZTINSt3__110__function6__funcIZN8firebase9firestore4core18AsyncEventListenerINS4_12ViewSnapshotEE7OnEventENS3_4util8StatusOrIS6_EEEUlvE_NS_9allocatorISB_EEFvvEEE",
            "__ZTSN8firebase9firestore6bundle14BundleCallbackE",
            "__ZTIN8nlohmann6detail16invalid_iteratorE",
            "__ZTSNSt3__120__shared_ptr_emplaceIN8firebase9firestore5model10DatabaseId3RepENS_9allocatorIS5_EEEE",
            "__ZTINSt3__110__function6__funcIPFN8firebase9firestore4util16ComparisonResultERKNS3_5model10FieldIndexES9_ENS_9allocatorISB_EESA_EE",
            "__ZTIN8firebase9firestore6bundle10NamedQueryE",
            "__ZTSN8firebase9firestore5local11TargetCacheE",
            "__ZTINSt3__110__function6__baseIFvPN4grpc13ClientContextEPNS2_8internal4CallEPNS5_25CallOpSendInitialMetadataEPvEEE",
            "__ZTIN8firebase9firestore5local11LruDelegateE",
            "__ZTSN4grpc8internal8CallNoOpILi3EEE",
            "__ZTSNSt3__120__shared_ptr_emplaceIN8firebase9firestore11credentials35FirebaseAppCheckCredentialsProviderENS_9allocatorIS4_EEEE",
            "__ZTIZN8firebase9firestore4core13EventListenerINS1_12ViewSnapshotEE6CreateENSt3__18functionIFvNS0_4util8StatusOrIS3_EEEEEE21CallbackEventListener",
            "__ZTSN8firebase9firestore6remote19RemoteStoreCallbackE",
            "__ZTINSt3__120__shared_ptr_emplaceIN8firebase9firestore9immutable4impl8LlrbNodeINS2_5model11DocumentKeyENS2_4core18DocumentViewChangeEE3RepENS_9allocatorISB_EEEE",
            "__ZTSNSt3__120__shared_ptr_emplaceIKN8firebase9firestore5model14ArrayTransform3RepENS_9allocatorIS6_EEEE",
            "__ZTSNSt3__110__function6__baseIFvON8firebase9firestore5local25LevelDbDocumentOverlayKeyEEEE",
            "__ZTSNSt3__110__function6__baseIFvxEEE",
            "__ZTIN8firebase9firestore5local40LevelDbDocumentOverlayCollectionIndexKeyE",
            "__ZTINSt3__110__function6__baseIFNS_6vectorIN8firebase9firestore4core7OrderByENS_9allocatorIS6_EEEEvEEE",
            "__ZTSN8firebase9firestore5local19RemoteDocumentCacheE",
            "__ZTSN8firebase9firestore5local30LevelDbDocumentOverlayIndexKeyE",
            "__ZTSN4grpc25ClientAsyncResponseReaderINS_10ByteBufferEEE",
            "__ZTSNSt3__120__shared_ptr_emplaceIN8firebase9firestore9immutable4impl10FixedArrayINS_4pairINS2_5model11DocumentKeyENS2_4core18DocumentViewChangeEEEEENS_9allocatorISC_EEEE",
            "__ZTSN4grpc8internal18InterceptedChannelE",
            "__ZTSNSt3__110shared_ptrIKN8firebase9firestore9immutable4impl10FixedArrayINS_4pairINS2_5model11DocumentKeyENS2_4core18DocumentViewChangeEEEEEE27__shared_ptr_default_deleteISD_SC_EE",
            "__ZTINSt3__120__shared_ptr_pointerIPN8firebase9firestore9immutable4impl8LlrbNodeINS2_5model8DocumentENS2_4util5EmptyEE3RepENS_10shared_ptrISB_E27__shared_ptr_default_deleteISB_SB_EENS_9allocatorISB_EEEE",
            "__ZTSPFN8firebase9firestore4util16ComparisonResultERKNS0_5model10FieldIndexES6_E",
            "__ZTINSt3__110__function6__baseIFvNS_10shared_ptrIN8firebase9firestore4core11TransactionEEENS_8functionIFvNS4_4util6StatusEEEEEEE",
            "__ZTSNSt3__120__shared_ptr_emplaceIKN8firebase9firestore4core11FieldFilter3RepENS_9allocatorIS6_EEEE",
            "__ZTSNSt3__120__shared_ptr_pointerIPN8firebase9firestore9immutable4impl10FixedArrayINS_4pairINS2_5model11DocumentKeyENS7_8DocumentEEEEENS_10shared_ptrIKSB_E27__shared_ptr_default_deleteISE_SB_EENS_9allocatorISB_EEEE",
            "__ZTSNSt3__120__shared_ptr_pointerIPN8firebase9firestore9immutable4impl10FixedArrayINS_4pairINS2_5model11DocumentKeyENS7_7OverlayEEEEENS_10shared_ptrIKSB_E27__shared_ptr_default_deleteISE_SB_EENS_9allocatorISB_EEEE",
            "__ZTIN8firebase9firestore3api20ListenerRegistrationE",
            "__ZTSN4grpc34ClientAsyncResponseReaderInterfaceINS_10ByteBufferEEE",
            "__ZTSN8firebase9firestore5local12IndexManagerE",
            "__ZTSNSt3__110__function6__baseIFvbRKNS_10shared_ptrIN8firebase9firestore6remote14GrpcCompletionEEEEEE",
            "__ZTINSt3__120__shared_ptr_pointerIPN8firebase9firestore9immutable4impl8LlrbNodeINS2_5local20DocumentKeyReferenceENS2_4util5EmptyEE3RepENS_10shared_ptrISB_E27__shared_ptr_default_deleteISB_SB_EENS_9allocatorISB_EEEE",
            "__ZTSN4grpc8internal18CallOpSetInterfaceE",
            "__ZTINSt3__110__function34__maybe_derive_from_unary_functionIFvN8firebase9firestore4util6StatusEEEE",
            "__ZTIN8firebase9firestore5index25AscendingIndexByteEncoderE",
            "__ZTSN4grpc8internal22CallOpClientRecvStatusE",
            "__ZTSN8firebase9firestore6remote26ExistenceFilterWatchChangeE",
            "__ZTSNSt3__120__shared_ptr_emplaceIN8firebase9firestore5model11ObjectValueENS_9allocatorIS4_EEEE",
            "__ZTINSt3__120__shared_ptr_emplaceIN8firebase9firestore9immutable4impl8LlrbNodeINS2_5local20DocumentKeyReferenceENS2_4util5EmptyEE3RepENS_9allocatorISB_EEEE",
            "__ZTIN8firebase9firestore5index27DirectionalIndexByteEncoderE",
            "__ZTSNSt3__110__function6__baseIFNS_6vectorIN8firebase9firestore4core11FieldFilterENS_9allocatorIS6_EEEEvEEE",
            "__ZTIN8firebase9firestore6remote24FirebaseMetadataProviderE",
            "__ZTIN4grpc8internal22CallOpClientRecvStatusE",
            "__ZTIN8firebase9firestore3api18LocalCacheSettingsE",
            "__ZTSN8firebase9firestore4core18AsyncEventListenerINS1_12ViewSnapshotEEE",
            "__ZTSNSt3__110__function6__baseIFvN8firebase9firestore5model11OnlineStateEEEE",
            "__ZTIPFN8firebase9firestore4util16ComparisonResultERKNS0_5model10FieldIndexES6_E",
            "__ZTIN4grpc8internal9CallOpSetINS0_25CallOpRecvInitialMetadataENS0_8CallNoOpILi2EEENS3_ILi3EEENS3_ILi4EEENS3_ILi5EEENS3_ILi6EEEEE",
            "__ZTINSt3__110__function6__baseIFN8firebase9firestore4util16ComparisonResultERKNS3_5model8DocumentES9_EEE",
            "__ZTINSt3__120__shared_ptr_emplaceIKN8firebase9firestore4core19KeyFieldNotInFilter3RepENS_9allocatorIS6_EEEE",
            "__ZTIN8firebase9firestore5local13MutationQueueE",
            "__ZTSN8firebase9firestore5local11LruDelegateE",
            "__ZTINSt3__120__shared_ptr_emplaceIN8firebase9firestore5model11SetMutation3RepENS_9allocatorIS5_EEEE",
            "__ZTSN8firebase9firestore4core18SyncEngineCallbackE",
            "__ZTINSt3__120__shared_ptr_emplaceIN8firebase9firestore6nanopb7MessageINS2_26_google_firestore_v1_ValueEEENS_9allocatorIS6_EEEE",
            "__ZTINSt3__120__shared_ptr_emplaceIN8firebase9firestore9immutable4impl10FixedArrayINS_4pairINS2_5model11DocumentKeyENS7_15MutableDocumentEEEEENS_9allocatorISB_EEEE",
            "__ZTSNSt3__120__shared_ptr_emplaceIN8firebase9firestore11credentials31FirebaseAuthCredentialsProvider8ContentsENS_9allocatorIS5_EEEE",
            "__ZTSNSt3__110__function6__baseIFbPN8firebase9firestore5model10FieldIndexES6_EEE",
            "__ZTIN8firebase9firestore6remote28FirebaseMetadataProviderNoOpE",
            "__ZTINSt3__120__shared_ptr_pointerIPN8firebase9firestore9immutable4impl8LlrbNodeINS2_5model11DocumentKeyENS6_15MutableDocumentEE3RepENS_10shared_ptrISA_E27__shared_ptr_default_deleteISA_SA_EENS_9allocatorISA_EEEE",
            "__ZTSN8firebase9firestore5local11BundleCacheE",
            "__ZTSN4grpc8internal9CallOpSetINS0_25CallOpSendInitialMetadataENS0_17CallOpSendMessageENS0_21CallOpClientSendCloseENS0_25CallOpRecvInitialMetadataENS0_17CallOpRecvMessageINS_10ByteBufferEEENS0_22CallOpClientRecvStatusEEE",
            "__ZTIN8nlohmann6detail12out_of_rangeE",
            "__ZTIN8firebase9firestore5model24ServerTimestampTransform3RepE",
            "__ZTINSt3__120__shared_ptr_emplaceIN8firebase9firestore3api14LoadBundleTaskENS_9allocatorIS4_EEEE",
            "__ZTSN8firebase9firestore3api20ListenerRegistrationE",
            "__ZTSNSt3__120__shared_ptr_pointerIPN8firebase9firestore4core13EventListenerINS3_12ViewSnapshotEEENS_14default_deleteIS6_EENS_9allocatorIS6_EEEE",
            "__ZTINSt3__120__shared_ptr_emplaceIN8firebase9firestore5model12ResourcePathENS_9allocatorIS4_EEEE",
            "__ZTSN8nlohmann6detail21output_string_adapterIcNSt3__112basic_stringIcNS2_11char_traitsIcEENS2_9allocatorIcEEEEEE",
            "__ZTSNSt3__110__function6__baseIFvRKN8firebase9firestore4util6StatusEbEEE",
            "__ZTSN4grpc8internal25CallOpSendInitialMetadataE",
            "__ZTIN8firebase9firestore5local44LevelDbDocumentOverlayLargestBatchIdIndexKeyE",
            "__ZTSNSt3__120__shared_ptr_pointerIPN8firebase9firestore9immutable4impl10FixedArrayINS_4pairINS2_5model11DocumentKeyENS2_4util5EmptyEEEEENS_10shared_ptrIKSC_E27__shared_ptr_default_deleteISF_SC_EENS_9allocatorISC_EEEE",
            "__ZTIN8firebase9firestore5local17ReferenceDelegateE",
            "__ZTINSt3__120__shared_ptr_emplaceINS_12basic_stringIcNS_11char_traitsIcEENS_9allocatorIcEEEENS4_IS6_EEEE",
            "__ZTINSt3__120__shared_ptr_emplaceIKN8firebase9firestore3api27PersistentCacheIndexManagerENS_9allocatorIS5_EEEE",
            "__ZTINSt3__110__function6__baseIFvPN4grpc13ClientContextEPNS2_8internal4CallEbPNS5_25CallOpSendInitialMetadataEPPNS5_18CallOpSetInterfaceEPvPNS2_6StatusESD_EEE",
            "__ZTSN8firebase9firestore6remote24FirebaseMetadataProviderE",
            "__ZTSNSt3__120__shared_ptr_emplaceIN8firebase9firestore9immutable4impl10FixedArrayINS_4pairINS2_5local20DocumentKeyReferenceENS2_4util5EmptyEEEEENS_9allocatorISC_EEEE",
            "__ZTSNSt3__110__function6__baseIFvN8firebase9firestore4util8StatusOrINS3_4core12ViewSnapshotEEEEEE",
            "__ZTSNSt3__114default_deleteIN8firebase9firestore4core13EventListenerINS2_3api13QuerySnapshotEEEEE",
            "__ZTIN4grpc8internal27InterceptorBatchMethodsImplE",
            "__ZTINSt3__120__shared_ptr_emplaceIN8firebase9firestore9immutable4impl10FixedArrayINS_4pairINS2_5model11DocumentKeyENS7_7OverlayEEEEENS_9allocatorISB_EEEE",
            "__ZTSN8nlohmann6detail9exceptionE",
            "__ZTIN8firebase9firestore5model18TransformOperation3RepE",
            "__ZTSNSt3__120__shared_ptr_emplaceIN8firebase9firestore3api14LoadBundleTaskENS_9allocatorIS4_EEEE",
            "__ZTSNSt3__110__function6__baseIFvvEEE",
            "__ZTINSt3__120__shared_ptr_pointerIPN8firebase9firestore4core13EventListenerINS3_12ViewSnapshotEEENS_14default_deleteIS6_EENS_9allocatorIS6_EEEE",
            "__ZTSN8firebase9firestore6bundle23BundledDocumentMetadataE",
            "__ZTSNSt3__110shared_ptrIN8firebase9firestore9immutable4impl8LlrbNodeINS2_5model11DocumentKeyENS6_8DocumentEE3RepEE27__shared_ptr_default_deleteISA_SA_EE",
            "__ZTIN8firebase9firestore5local19RemoteDocumentCacheE",
            "__ZTIN8firebase9firestore5local29MemoryOverlayMigrationManagerE",
            "__ZTSNSt3__123enable_shared_from_thisIN8firebase9firestore6remote6StreamEEE",
            "__ZTSNSt3__113basic_filebufIcNS_11char_traitsIcEEEE",
            "__ZTIN8firebase9firestore4util8ExecutorE",
            "__ZTSNSt3__120__shared_ptr_emplaceIN8firebase9firestore5model12ResourcePathENS_9allocatorIS4_EEEE",
            "__ZTSN4grpc8internal25CallOpRecvInitialMetadataE",
            "__ZTSN4grpc16ChannelInterfaceE",
            "__ZTSNSt3__120__shared_ptr_emplaceIN8firebase9firestore9immutable4impl10FixedArrayINS_4pairINS2_5model11DocumentKeyENS7_15MutableDocumentEEEEENS_9allocatorISB_EEEE",
            "__ZTSN8firebase9firestore6remote19WriteStreamCallbackE",
            "__ZTSN8nlohmann6detail23output_adapter_protocolIcEE",
            "__ZTSN8firebase9firestore4util13PlatformErrorE",
            "__ZTINSt3__110__function6__baseIFvN8firebase9firestore6remote19ConnectivityMonitor13NetworkStatusEEEE",
            "__ZTINSt3__110__function6__baseIFvRKN8firebase9firestore5index10IndexEntryEEEE",
            "__ZTSN8firebase9firestore4util8ExecutorE",
            "__ZTSNSt3__120__shared_ptr_emplaceIN8nlohmann6detail21output_string_adapterIcNS_12basic_stringIcNS_11char_traitsIcEENS_9allocatorIcEEEEEENS7_ISA_EEEE",
            "__ZTSNSt3__110shared_ptrIN8firebase9firestore9immutable4impl8LlrbNodeINS2_5model11DocumentKeyENS2_4core18DocumentViewChangeEE3RepEE27__shared_ptr_default_deleteISB_SB_EE",
            "__ZTSNSt3__110__function6__baseIFvRKN8firebase9firestore4util8StatusOrINS_6vectorINS3_5model8DocumentENS_9allocatorIS8_EEEEEEEEE"
          ]
        },
        "targets": [
          "x86_64-macos"
        ]
      }
    ],
    "flags": [
      {
        "attributes": [
          "not_app_extension_safe"
        ]
      }
    ],
    "install_names": [
      {
        "name": "@rpath/FirebaseFirestoreInternal.framework/Versions/A/FirebaseFirestoreInternal"
      }
    ],
    "target_info": [
      {
        "min_deployment": "10.13",
        "target": "x86_64-macos"
      },
      {
        "min_deployment": "11",
        "target": "arm64-macos"
      }
    ]
  },
  "tapi_tbd_version": 5
}
